"File: eTable.c      Assembler  Version HGASM0202      Page 1


   1  0000              ; Generated by holtek-gcc v3.18, Mon Oct 29 18:03:28 2018
   2  0000              ; 
   3  0000              ; Configuration:
   4  0000              ;       without long instruction
   5  0000              ;       Single ROM, Multi-RAM
   6  0000              ;       bits_per_rom_unit:16
   7  0000              ;       with mp1
   8  0000              ;       with tbhp, address(0x9)
   9  0000              ;          Use tabrd-const
  10  0000              ;       
  11  0000              ;       
  12  0000              ;       
  13  0000              ; use 'tabrdc' instead of 'tabrd'
  14  0000              ;       
  15  0000              
  16  0000              #pragma translator "holtek-gcc 4.6.4" "3.18" "build 20130711"
  17  0000              ; Rebuild 521
  18  0000              
  19  0000              ir equ [2]
  20  0000              mp equ [3]
  21  0000              sbp equ [1]
  22  0000              acc equ [5]
  23  0000              bp equ [4]
  24  0000              tblp equ [7]
  25  0000              tbhp equ [9]
  26  0000              status equ [10]
  27  0000              c equ [10].0
  28  0000              ac equ [10].1
  29  0000              z equ [10].2
  30  0000              ov equ [10].3
  31  0000              intc equ [11]
  32  0000              
  33  0000              extern ra:byte
  34  0000              extern rb:byte
  35  0000              extern rc:byte
  36  0000              extern rd:byte
  37  0000              extern re:byte
  38  0000              extern rf:byte
  39  0000              extern rg:byte
  40  0000              extern rh:byte
  41  0000              extern _Crom2Prom:near
  42  0000              extern _Crom2PromNext:near
  43  0000              
  44  0000              RAMBANK 0 @HCCINIT, @HCCINIT0
  45  0000              
  46  0000              RAMBANK 0 @BITDATASEC, @BITDATASEC1
  47  0000              @HCCINIT	.section 'data'
  48  0000              @HCCINIT0	.section 'data'
  49  0000              @BITDATASEC	 .section 'data'
  50  0000              @BITDATASEC1	 .section 'data'
  51  0000              
  52  0000              #pragma debug scope 1 1
  53  0000              	extern __DELAY3:near
  54  0000              	extern __DELAYX3:near
  55  0000              	extern __DELAYX6:near
  56  0000              	extern __DELAYY5:near
  57  0000              	extern __DELAYY3:near
  58  0000              	extern _builtin_holtek_delay_2:byte
  59  0000              public _Init_Vars
"File: eTable.ASM    Assembler  Version HGASM0202      Page 2

  60  0000              #pragma debug scope 2 1

 264  0000              #line 264 "D:\WORK\Project\Github\Segment_7_Key_TX\code\eTable.c"
 264  0000              _Init_Vars .section 'code'
 264  0000              _Init_Vars proc
 266  0000              #line 266 "D:\WORK\Project\Github\Segment_7_Key_TX\code\eTable.c"
 266  0000  0F46        	mov a,70
 266  0001  0080     R  	mov _height_str[0],a
 267  0002              #line 267 "D:\WORK\Project\Github\Segment_7_Key_TX\code\eTable.c"
 267  0002  0F46        	mov a,70
 267  0003  0080     R  	mov _height_str[1],a
 268  0004              #line 268 "D:\WORK\Project\Github\Segment_7_Key_TX\code\eTable.c"
 268  0004  0F46        	mov a,70
 268  0005  0080     R  	mov _height_str[2],a
 270  0006              #line 270 "D:\WORK\Project\Github\Segment_7_Key_TX\code\eTable.c"
 270  0006  1F00     R  	clr _key_stat[0]
 271  0007              #line 271 "D:\WORK\Project\Github\Segment_7_Key_TX\code\eTable.c"
 271  0007  1F00     R  	clr _ptr_buff[0]
 272  0008              #line 272 "D:\WORK\Project\Github\Segment_7_Key_TX\code\eTable.c"
 272  0008  3400     R  	clr _rx_received
 272  0009  0F11        	mov a,17
 272  000A  0080     E  	mov ra,a
 273  000B              #line 273 "D:\WORK\Project\Github\Segment_7_Key_TX\code\eTable.c"
 273  000B  1F00     E  	clr rd
 273  000C              _L3:
 275  000C              #line 275 "D:\WORK\Project\Github\Segment_7_Key_TX\code\eTable.c"
 275  000C  0700     E  	mov a,rd
 275  000D  0080     E  	mov rb,a
 275  000E  1F00     E  	clr rc
 275  000F  0F00     R  	mov a,low offset _buff_tx
 275  0010  0300     E  	add a,rb
 275  0011  0083        	mov mp,a
 275  0012  0F00     R  	mov a,high offset _buff_tx
 275  0013  1300     E  	adc a,rc
 275  0014  0081        	mov sbp,a
 275  0015  0701        	mov a,sbp
 275  0016  0084        	mov bp,a
 275  0017  0F00        	mov a,0
 275  0018  0082        	mov ir,a
 276  0019              #line 276 "D:\WORK\Project\Github\Segment_7_Key_TX\code\eTable.c"
 276  0019  0F00     R  	mov a,low offset _buff_rx
 276  001A  0300     E  	add a,rb
 276  001B  0083        	mov mp,a
 276  001C  0F00     R  	mov a,high offset _buff_rx
 276  001D  1300     E  	adc a,rc
 276  001E  0081        	mov sbp,a
 276  001F  0701        	mov a,sbp
 276  0020  0084        	mov bp,a
 276  0021  0F00        	mov a,0
 276  0022  0082        	mov ir,a
 273  0023              #line 273 "D:\WORK\Project\Github\Segment_7_Key_TX\code\eTable.c"
 273  0023  1480     E  	inc rd
 273  0024  1780     E  	sdz ra
 273  0025  2800     R  	jmp _L3
 273  0026  0003        	ret
 273  0027              _Init_Vars endp
 273  0027              #line 273 "D:\WORK\Project\Github\Segment_7_Key_TX\code\eTable.c"
 273  0027              #pragma debug scope 1 1
 273  0027              public _Delay
 273  0027              #pragma debug scope 3 1
"File: eTable.c      Assembler  Version HGASM0202      Page 3

 281  0027              #line 281 "D:\WORK\Project\Github\Segment_7_Key_TX\code\eTable.c"
 281  0000              _Delay .section 'code'
 281  0000              _Delay proc
 281  0000              public _Delay_2
 281  0000  0004[           local _Delay_2 db 4 dup(?)	; 2,2
            00
            ]
 281  0004              #pragma debug variable 12 3 _Delay_2+0 "count"
 281  0004              #pragma debug variable 12 3 _Delay_2+2 "i"
 283  0004              #line 283 "D:\WORK\Project\Github\Segment_7_Key_TX\code\eTable.c"
 283  0000  1F00     R  	clr _Delay_2[2]
 283  0001  1F00     R  	clr _Delay_2[3]
 283  0002  2800     R  	jmp _L6
 283  0003              _L7:
 285  0003              #line 285 "D:\WORK\Project\Github\Segment_7_Key_TX\code\eTable.c"
 285  0003              ;# 285 "D:\WORK\Project\Github\Segment_7_Key_TX\code\eTable.c" 1
 285  0003  0001        	clr wdt
 283  0004              #line 283 "D:\WORK\Project\Github\Segment_7_Key_TX\code\eTable.c"
 283  0004  1480     R  	inc _Delay_2[2]
 283  0005  3D0A        	sz z
 283  0006  1480     R  	inc _Delay_2[3]
 283  0007              _L6:
 283  0007  0700     R  	mov a,_Delay_2[2]
 283  0008  0200     R  	sub a,_Delay_2[0]
 283  0009  0700     R  	mov a,_Delay_2[3]
 283  000A  1200     R  	sbc a,_Delay_2[1]
 283  000B  380A        	snz c
 283  000C  2800     R  	jmp _L7
 283  000D  0003        	ret
 283  000E              _Delay endp
 283  000E              #line 283 "D:\WORK\Project\Github\Segment_7_Key_TX\code\eTable.c"
 283  000E              #pragma debug scope 1 1
 283  000E              ___sledc0 equ [81]
 283  000E              ___sledc1 equ [82]
 283  000E              public _Led_Current_Set
 283  000E              #pragma debug scope 4 1
 291  000E              #line 291 "D:\WORK\Project\Github\Segment_7_Key_TX\code\eTable.c"
 291  0000              _Led_Current_Set .section 'code'
 291  0000              _Led_Current_Set proc
 291  0000  00              local _Led_Current_Set_2 db 1 dup(?)	; 0,1
 291  0000  0080     E  	mov ra,a
 291  0001  0080     R  	mov _Led_Current_Set_2[0],a
 291  0002              #pragma debug variable 8 4 _Led_Current_Set_2+0 "level"
 292  0002              #line 292 "D:\WORK\Project\Github\Segment_7_Key_TX\code\eTable.c"
 292  0002  1700     E  	sdza ra
 292  0003  2800     R  	jmp _L9
 294  0004              #line 294 "D:\WORK\Project\Github\Segment_7_Key_TX\code\eTable.c"
 294  0004  0F55        	mov a,85
 294  0005  00D1        	mov [81],a
 295  0006              #line 295 "D:\WORK\Project\Github\Segment_7_Key_TX\code\eTable.c"
 295  0006  0F55        	mov a,85
 295  0007  00D2        	mov [82],a
 295  0008  2800     R  	jmp _L8
 295  0009              _L9:
 297  0009              #line 297 "D:\WORK\Project\Github\Segment_7_Key_TX\code\eTable.c"
 297  0009  0700     R  	mov a,_Led_Current_Set_2[0]
 297  000A  0A02        	sub a,2
 297  000B  390A        	snz z
 297  000C  2800     R  	jmp _L11
 299  000D              #line 299 "D:\WORK\Project\Github\Segment_7_Key_TX\code\eTable.c"
"File: eTable.c      Assembler  Version HGASM0202      Page 4

 299  000D  0FAA        	mov a,170
 299  000E  00D1        	mov [81],a
 300  000F              #line 300 "D:\WORK\Project\Github\Segment_7_Key_TX\code\eTable.c"
 300  000F  0FAA        	mov a,170
 300  0010  00D2        	mov [82],a
 300  0011  2800     R  	jmp _L8
 300  0012              _L11:
 302  0012              #line 302 "D:\WORK\Project\Github\Segment_7_Key_TX\code\eTable.c"
 302  0012  0700     R  	mov a,_Led_Current_Set_2[0]
 302  0013  0A03        	sub a,3
 302  0014  390A        	snz z
 302  0015  2800     R  	jmp _L12
 304  0016              #line 304 "D:\WORK\Project\Github\Segment_7_Key_TX\code\eTable.c"
 304  0016  1FD1        	set [81]
 305  0017              #line 305 "D:\WORK\Project\Github\Segment_7_Key_TX\code\eTable.c"
 305  0017  1FD2        	set [82]
 305  0018  2800     R  	jmp _L8
 305  0019              _L12:
 309  0019              #line 309 "D:\WORK\Project\Github\Segment_7_Key_TX\code\eTable.c"
 309  0019  1F51        	clr [81]
 310  001A              #line 310 "D:\WORK\Project\Github\Segment_7_Key_TX\code\eTable.c"
 310  001A  1F52        	clr [82]
 310  001B              _L8:
 310  001B  0003        	ret
 310  001C              _Led_Current_Set endp
 310  001C              #line 310 "D:\WORK\Project\Github\Segment_7_Key_TX\code\eTable.c"
 310  001C              #pragma debug scope 1 1
 310  001C              ___wdtc equ [26]
 310  001C              ___acerl equ [67]
 310  001C              ___cpc equ [62]
 310  001C              ___pb equ [37]
 310  001C              ___pc equ [64]
 310  001C              ___pa equ [20]
 310  001C              ___pac equ [21]
 310  001C              ___pbc equ [38]
 310  001C              ___pcc equ [65]
 310  001C              ___pcpu equ [66]
 310  001C              ___papu equ [22]
 310  001C              ___pbpu equ [39]
 310  001C              ___intc2 equ [16]
 310  001C              ___ucr2 equ [70]
 310  001C              ___brg equ [71]
 310  001C              ___ucr1 equ [69]
 310  001C              ___tbc equ [27]
 310  001C              ___intc1 equ [15]
 310  001C              public _Init_System
 310  001C              #pragma debug scope 5 1
 191  001C              #line 191 "D:\WORK\Project\Github\Segment_7_Key_TX\code\eTable.c"
 191  0000              _Init_System .section 'code'
 191  0000              _Init_System proc
 192  0000              #line 192 "D:\WORK\Project\Github\Segment_7_Key_TX\code\eTable.c"
 192  0000  0FAF        	mov a,175
 192  0001  009A        	mov [26],a
 194  0002              #line 194 "D:\WORK\Project\Github\Segment_7_Key_TX\code\eTable.c"
 194  0002  1F43        	clr [67]
 195  0003              #line 195 "D:\WORK\Project\Github\Segment_7_Key_TX\code\eTable.c"
 195  0003  31BE        	set [62].3
 196  0004              #line 196 "D:\WORK\Project\Github\Segment_7_Key_TX\code\eTable.c"
 196  0004  37BE        	clr [62].7
 199  0005              #line 199 "D:\WORK\Project\Github\Segment_7_Key_TX\code\eTable.c"
"File: eTable.c      Assembler  Version HGASM0202      Page 5

 199  0005  0F00        	mov a,0
 199  0006  2000     R  	call _Led_Current_Set
 201  0007              #line 201 "D:\WORK\Project\Github\Segment_7_Key_TX\code\eTable.c"
 201  0007  3425        	clr [37].0
 202  0008              #line 202 "D:\WORK\Project\Github\Segment_7_Key_TX\code\eTable.c"
 202  0008  34A5        	clr [37].1
 203  0009              #line 203 "D:\WORK\Project\Github\Segment_7_Key_TX\code\eTable.c"
 203  0009  3525        	clr [37].2
 204  000A              #line 204 "D:\WORK\Project\Github\Segment_7_Key_TX\code\eTable.c"
 204  000A  3740        	clr [64].6
 205  000B              #line 205 "D:\WORK\Project\Github\Segment_7_Key_TX\code\eTable.c"
 205  000B  36C0        	clr [64].5
 206  000C              #line 206 "D:\WORK\Project\Github\Segment_7_Key_TX\code\eTable.c"
 206  000C  3614        	clr [20].4
 207  000D              #line 207 "D:\WORK\Project\Github\Segment_7_Key_TX\code\eTable.c"
 207  000D  3694        	clr [20].5
 208  000E              #line 208 "D:\WORK\Project\Github\Segment_7_Key_TX\code\eTable.c"
 208  000E  3714        	clr [20].6
 209  000F              #line 209 "D:\WORK\Project\Github\Segment_7_Key_TX\code\eTable.c"
 209  000F  3794        	clr [20].7
 210  0010              #line 210 "D:\WORK\Project\Github\Segment_7_Key_TX\code\eTable.c"
 210  0010  35A5        	clr [37].3
 211  0011              #line 211 "D:\WORK\Project\Github\Segment_7_Key_TX\code\eTable.c"
 211  0011  3625        	clr [37].4
 212  0012              #line 212 "D:\WORK\Project\Github\Segment_7_Key_TX\code\eTable.c"
 212  0012  3615        	clr [21].4
 213  0013              #line 213 "D:\WORK\Project\Github\Segment_7_Key_TX\code\eTable.c"
 213  0013  3695        	clr [21].5
 214  0014              #line 214 "D:\WORK\Project\Github\Segment_7_Key_TX\code\eTable.c"
 214  0014  3715        	clr [21].6
 215  0015              #line 215 "D:\WORK\Project\Github\Segment_7_Key_TX\code\eTable.c"
 215  0015  3795        	clr [21].7
 217  0016              #line 217 "D:\WORK\Project\Github\Segment_7_Key_TX\code\eTable.c"
 217  0016  3426        	clr [38].0
 218  0017              #line 218 "D:\WORK\Project\Github\Segment_7_Key_TX\code\eTable.c"
 218  0017  34A6        	clr [38].1
 219  0018              #line 219 "D:\WORK\Project\Github\Segment_7_Key_TX\code\eTable.c"
 219  0018  3526        	clr [38].2
 220  0019              #line 220 "D:\WORK\Project\Github\Segment_7_Key_TX\code\eTable.c"
 220  0019  35A6        	clr [38].3
 221  001A              #line 221 "D:\WORK\Project\Github\Segment_7_Key_TX\code\eTable.c"
 221  001A  3626        	clr [38].4
 223  001B              #line 223 "D:\WORK\Project\Github\Segment_7_Key_TX\code\eTable.c"
 223  001B  36C1        	clr [65].5
 224  001C              #line 224 "D:\WORK\Project\Github\Segment_7_Key_TX\code\eTable.c"
 224  001C  3741        	clr [65].6
 228  001D              #line 228 "D:\WORK\Project\Github\Segment_7_Key_TX\code\eTable.c"
 228  001D  3042        	set [66].0
 229  001E              #line 229 "D:\WORK\Project\Github\Segment_7_Key_TX\code\eTable.c"
 229  001E  30C2        	set [66].1
 230  001F              #line 230 "D:\WORK\Project\Github\Segment_7_Key_TX\code\eTable.c"
 230  001F  3142        	set [66].2
 231  0020              #line 231 "D:\WORK\Project\Github\Segment_7_Key_TX\code\eTable.c"
 231  0020  3096        	set [22].1
 232  0021              #line 232 "D:\WORK\Project\Github\Segment_7_Key_TX\code\eTable.c"
 232  0021  3196        	set [22].3
 233  0022              #line 233 "D:\WORK\Project\Github\Segment_7_Key_TX\code\eTable.c"
 233  0022  32A7        	set [39].5
 234  0023              #line 234 "D:\WORK\Project\Github\Segment_7_Key_TX\code\eTable.c"
 234  0023  3327        	set [39].6
"File: eTable.c      Assembler  Version HGASM0202      Page 6

 236  0024              #line 236 "D:\WORK\Project\Github\Segment_7_Key_TX\code\eTable.c"
 236  0024  3040        	set [64].0
 237  0025              #line 237 "D:\WORK\Project\Github\Segment_7_Key_TX\code\eTable.c"
 237  0025  30C0        	set [64].1
 238  0026              #line 238 "D:\WORK\Project\Github\Segment_7_Key_TX\code\eTable.c"
 238  0026  3140        	set [64].2
 239  0027              #line 239 "D:\WORK\Project\Github\Segment_7_Key_TX\code\eTable.c"
 239  0027  3094        	set [20].1
 240  0028              #line 240 "D:\WORK\Project\Github\Segment_7_Key_TX\code\eTable.c"
 240  0028  3194        	set [20].3
 241  0029              #line 241 "D:\WORK\Project\Github\Segment_7_Key_TX\code\eTable.c"
 241  0029  3325        	set [37].6
 242  002A              #line 242 "D:\WORK\Project\Github\Segment_7_Key_TX\code\eTable.c"
 242  002A  32A5        	set [37].5
 245  002B              #line 245 "D:\WORK\Project\Github\Segment_7_Key_TX\code\eTable.c"
 245  002B  3790        	clr [16].7
 246  002C              #line 246 "D:\WORK\Project\Github\Segment_7_Key_TX\code\eTable.c"
 246  002C  3190        	set [16].3
 247  002D              #line 247 "D:\WORK\Project\Github\Segment_7_Key_TX\code\eTable.c"
 247  002D  3146        	set [70].2
 249  002E              #line 249 "D:\WORK\Project\Github\Segment_7_Key_TX\code\eTable.c"
 249  002E  32C6        	set [70].5
 250  002F              #line 250 "D:\WORK\Project\Github\Segment_7_Key_TX\code\eTable.c"
 250  002F  0F4D        	mov a,77
 250  0030  00C7        	mov [71],a
 251  0031              #line 251 "D:\WORK\Project\Github\Segment_7_Key_TX\code\eTable.c"
 251  0031  33C5        	set [69].7
 252  0032              #line 252 "D:\WORK\Project\Github\Segment_7_Key_TX\code\eTable.c"
 252  0032  33C6        	set [70].7
 253  0033              #line 253 "D:\WORK\Project\Github\Segment_7_Key_TX\code\eTable.c"
 253  0033  3346        	set [70].6
 256  0034              #line 256 "D:\WORK\Project\Github\Segment_7_Key_TX\code\eTable.c"
 256  0034  0FC1        	mov a,193
 256  0035  009B        	mov [27],a
 257  0036              #line 257 "D:\WORK\Project\Github\Segment_7_Key_TX\code\eTable.c"
 257  0036  378F        	clr [15].7
 258  0037              #line 258 "D:\WORK\Project\Github\Segment_7_Key_TX\code\eTable.c"
 258  0037  318F        	set [15].3
 259  0038              #line 259 "D:\WORK\Project\Github\Segment_7_Key_TX\code\eTable.c"
 259  0038  3610        	clr [16].4
 260  0039              #line 260 "D:\WORK\Project\Github\Segment_7_Key_TX\code\eTable.c"
 260  0039  3010        	set [16].0
 260  003A  0003        	ret
 260  003B              _Init_System endp
 260  003B              #line 260 "D:\WORK\Project\Github\Segment_7_Key_TX\code\eTable.c"
 260  003B              #pragma debug scope 1 1
 260  003B              public _Digit_Set
 260  003B              #pragma debug scope 6 1
 314  003B              #line 314 "D:\WORK\Project\Github\Segment_7_Key_TX\code\eTable.c"
 314  0000              _Digit_Set .section 'code'
 314  0000              _Digit_Set proc
 314  0000  00              local _Digit_Set_2 db 1 dup(?)	; 0,1
 314  0000  0080     E  	mov ra,a
 314  0001  0080     R  	mov _Digit_Set_2[0],a
 314  0002              #pragma debug variable 8 6 _Digit_Set_2+0 "led"
 315  0002              #line 315 "D:\WORK\Project\Github\Segment_7_Key_TX\code\eTable.c"
 315  0002  0F01        	mov a,1
 315  0003  0680     E  	andm a,ra
 315  0004  3425        	clr [37].0
 315  0005  0700     E  	mov a,ra
"File: eTable.c      Assembler  Version HGASM0202      Page 7

 315  0006  05A5        	orm a,[37]
 316  0007              #line 316 "D:\WORK\Project\Github\Segment_7_Key_TX\code\eTable.c"
 316  0007  1F00     E  	clr ra
 316  0008  3C00     R  	sz _Digit_Set_2[0].1
 316  0009  1480     E  	inc ra
 316  000A  0700     E  	mov a,ra
 316  000B  0380     E  	addm a,ra
 316  000C  34A5        	clr [37].1
 316  000D  0700     E  	mov a,ra
 316  000E  05A5        	orm a,[37]
 317  000F              #line 317 "D:\WORK\Project\Github\Segment_7_Key_TX\code\eTable.c"
 317  000F  1F00     E  	clr ra
 317  0010  3C00     R  	sz _Digit_Set_2[0].2
 317  0011  3000     E  	set ra.2
 317  0012  3525        	clr [37].2
 317  0013  0700     E  	mov a,ra
 317  0014  05A5        	orm a,[37]
 318  0015              #line 318 "D:\WORK\Project\Github\Segment_7_Key_TX\code\eTable.c"
 318  0015  1F00     E  	clr ra
 318  0016  3C00     R  	sz _Digit_Set_2[0].3
 318  0017  1480     E  	inc ra
 318  0018  1900     E  	rra ra
 318  0019  1985        	rr acc
 318  001A  0EC0        	and a,0c0h
 318  001B  0080     E  	mov ra,a
 318  001C  3740        	clr [64].6
 318  001D  0700     E  	mov a,ra
 318  001E  05C0        	orm a,[64]
 319  001F              #line 319 "D:\WORK\Project\Github\Segment_7_Key_TX\code\eTable.c"
 319  001F  1F00     E  	clr ra
 319  0020  3C00     R  	sz _Digit_Set_2[0].4
 319  0021  1480     E  	inc ra
 319  0022  1100     E  	swapa ra
 319  0023  1885        	rl acc
 319  0024  0EE0        	and a,0e0h
 319  0025  0080     E  	mov ra,a
 319  0026  36C0        	clr [64].5
 319  0027  0700     E  	mov a,ra
 319  0028  05C0        	orm a,[64]
 320  0029              #line 320 "D:\WORK\Project\Github\Segment_7_Key_TX\code\eTable.c"
 320  0029  1F00     E  	clr ra
 320  002A  3C00     R  	sz _Digit_Set_2[0].5
 320  002B  1480     E  	inc ra
 320  002C  1100     E  	swapa ra
 320  002D  0EF0        	and a,0f0h 
 320  002E  0080     E  	mov ra,a
 320  002F  3614        	clr [20].4
 320  0030  0700     E  	mov a,ra
 320  0031  0594        	orm a,[20]
 321  0032              #line 321 "D:\WORK\Project\Github\Segment_7_Key_TX\code\eTable.c"
 321  0032  1F00     E  	clr ra
 321  0033  3C00     R  	sz _Digit_Set_2[0].6
 321  0034  1480     E  	inc ra
 321  0035  1100     E  	swapa ra
 321  0036  1885        	rl acc
 321  0037  0EE0        	and a,0e0h
 321  0038  0080     E  	mov ra,a
 321  0039  3694        	clr [20].5
 321  003A  0700     E  	mov a,ra
 321  003B  0594        	orm a,[20]
"File: eTable.c      Assembler  Version HGASM0202      Page 8

 322  003C              #line 322 "D:\WORK\Project\Github\Segment_7_Key_TX\code\eTable.c"
 322  003C  1800     R  	rla _Digit_Set_2[0]
 322  003D  0E01        	and a,1
 322  003E  0080     E  	mov ra,a
 322  003F  1900     E  	rra ra
 322  0040  1985        	rr acc
 322  0041  0EC0        	and a,0c0h
 322  0042  0080     E  	mov ra,a
 322  0043  3714        	clr [20].6
 322  0044  0700     E  	mov a,ra
 322  0045  0594        	orm a,[20]
 322  0046  0003        	ret
 322  0047              _Digit_Set endp
 322  0047              #line 322 "D:\WORK\Project\Github\Segment_7_Key_TX\code\eTable.c"
 322  0047              #pragma debug scope 1 1
 322  0047              public _Com_Sel
 322  0047              #pragma debug scope 7 1
 326  0047              #line 326 "D:\WORK\Project\Github\Segment_7_Key_TX\code\eTable.c"
 326  0000              _Com_Sel .section 'code'
 326  0000              _Com_Sel proc
 326  0000  00              local _Com_Sel_2 db 1 dup(?)	; 0,1
 326  0000  0080     R  	mov _Com_Sel_2[0],a
 326  0001              #pragma debug variable 8 7 _Com_Sel_2+0 "sel"
 327  0001              #line 327 "D:\WORK\Project\Github\Segment_7_Key_TX\code\eTable.c"
 327  0001  3794        	clr [20].7
 328  0002              #line 328 "D:\WORK\Project\Github\Segment_7_Key_TX\code\eTable.c"
 328  0002  35A5        	clr [37].3
 329  0003              #line 329 "D:\WORK\Project\Github\Segment_7_Key_TX\code\eTable.c"
 329  0003  3625        	clr [37].4
 331  0004              #line 331 "D:\WORK\Project\Github\Segment_7_Key_TX\code\eTable.c"
 331  0004  1080     R  	sz _Com_Sel_2[0]
 331  0005  2800     R  	jmp _L16
 333  0006              #line 333 "D:\WORK\Project\Github\Segment_7_Key_TX\code\eTable.c"
 333  0006  3394        	set [20].7
 333  0007  2800     R  	jmp _L15
 333  0008              _L16:
 335  0008              #line 335 "D:\WORK\Project\Github\Segment_7_Key_TX\code\eTable.c"
 335  0008  1700     R  	sdza _Com_Sel_2[0]
 335  0009  2800     R  	jmp _L18
 337  000A              #line 337 "D:\WORK\Project\Github\Segment_7_Key_TX\code\eTable.c"
 337  000A  31A5        	set [37].3
 337  000B  2800     R  	jmp _L15
 337  000C              _L18:
 339  000C              #line 339 "D:\WORK\Project\Github\Segment_7_Key_TX\code\eTable.c"
 339  000C  0700     R  	mov a,_Com_Sel_2[0]
 339  000D  0A02        	sub a,2
 339  000E  390A        	snz z
 339  000F  2800     R  	jmp _L15
 341  0010              #line 341 "D:\WORK\Project\Github\Segment_7_Key_TX\code\eTable.c"
 341  0010  3225        	set [37].4
 341  0011              _L15:
 341  0011  0003        	ret
 341  0012              _Com_Sel endp
 341  0012              #line 341 "D:\WORK\Project\Github\Segment_7_Key_TX\code\eTable.c"
 341  0012              #pragma debug scope 1 1
 341  0012              public _Led_Scan
 341  0012              #pragma debug scope 8 1
 346  0012              #line 346 "D:\WORK\Project\Github\Segment_7_Key_TX\code\eTable.c"
 346  0000              _Led_Scan .section 'code'
 346  0000              _Led_Scan proc
"File: eTable.c      Assembler  Version HGASM0202      Page 9

 346  0000  0004[           local _Led_Scan_2 db 4 dup(?)	; 0,4
            00
            ]
 351  0004              #line 351 "D:\WORK\Project\Github\Segment_7_Key_TX\code\eTable.c"
 351  0000  0F00        	mov a,0
 351  0001  2000     R  	call _Digit_Set
 353  0002              #line 353 "D:\WORK\Project\Github\Segment_7_Key_TX\code\eTable.c"
 353  0002  0700     R  	mov a,___led_tmr_1843[0]
 353  0003  0080     R  	mov _Led_Scan_2[0],a
 353  0004  0700     R  	mov a,___led_tmr_1843[1]
 353  0005  0080     R  	mov _Led_Scan_2[1],a
 353  0006  0700     R  	mov a,___led_tmr_1843[2]
 353  0007  0080     R  	mov _Led_Scan_2[2],a
 353  0008  0700     R  	mov a,___led_tmr_1843[3]
 353  0009  0080     R  	mov _Led_Scan_2[3],a
 353  000A  0700     R  	mov a,_led_duty[0]
 353  000B  0200     R  	sub a,_Led_Scan_2[0]
 353  000C  0700     R  	mov a,_led_duty[1]
 353  000D  1200     R  	sbc a,_Led_Scan_2[1]
 353  000E  1F05        	clr acc
 353  000F  1200     R  	sbc a,_Led_Scan_2[2]
 353  0010  1F05        	clr acc
 353  0011  1200     R  	sbc a,_Led_Scan_2[3]
 353  0012  380A        	snz c
 353  0013  2800     R  	jmp _L20
 354  0014              #line 354 "D:\WORK\Project\Github\Segment_7_Key_TX\code\eTable.c"
 354  0014  0700     R  	mov a,_com[0]
 354  0015  0080     E  	mov ra,a
 354  0016  0700     E  	mov a,ra
 354  0017  2800     R  	jmp _L27
 354  0018              _L20:
 356  0018              #line 356 "D:\WORK\Project\Github\Segment_7_Key_TX\code\eTable.c"
 356  0018  0F08        	mov a,8
 356  0019              _L27:
 356  0019  2000     R  	call _Com_Sel
 358  001A              #line 358 "D:\WORK\Project\Github\Segment_7_Key_TX\code\eTable.c"
 358  001A  0F00     R  	mov a,low offset _height_str
 358  001B  0300     R  	add a,_com[0]
 358  001C  0083        	mov mp,a
 358  001D  0F00     R  	mov a,high offset _height_str
 358  001E  1F01        	clr sbp
 358  001F  1381        	adcm a,sbp
 358  0020  2000     E  	call _Crom2Prom
 358  0021  0080     E  	mov ra,a
 359  0022              #line 359 "D:\WORK\Project\Github\Segment_7_Key_TX\code\eTable.c"
 359  0022  0700     E  	mov a,ra
 359  0023  0BD0        	add a,208
 359  0024  0080     E  	mov rb,a
 359  0025  0F09        	mov a,9
 359  0026  0200     E  	sub a,rb
 359  0027  3C0A        	sz c
 359  0028  2800     R  	jmp _L28
 364  0029              #line 364 "D:\WORK\Project\Github\Segment_7_Key_TX\code\eTable.c"
 364  0029  0700     E  	mov a,ra
 364  002A  0BBF        	add a,191
 364  002B  0080     E  	mov rb,a
 364  002C  0F05        	mov a,5
 364  002D  0200     E  	sub a,rb
 364  002E  380A        	snz c
 364  002F  2800     R  	jmp _L23
"File: eTable.c      Assembler  Version HGASM0202      Page 10

 366  0030              #line 366 "D:\WORK\Project\Github\Segment_7_Key_TX\code\eTable.c"
 366  0030  0700     E  	mov a,ra
 366  0031  0BC9        	add a,201
 366  0032  0080     E  	mov rb,a
 366  0033              _L28:
 367  0033              #line 367 "D:\WORK\Project\Github\Segment_7_Key_TX\code\eTable.c"
 367  0033  1F00     E  	clr rc
 367  0034  3C00     E  	sz rb.7
 367  0035  1F80     E  	set rc
 367  0036  0F00     R  	mov a,low offset _seg_7_table
 367  0037  0300     E  	add a,rb
 367  0038  0083        	mov mp,a
 367  0039  0F00     R  	mov a,high offset _seg_7_table
 367  003A  1300     E  	adc a,rc
 367  003B  0081        	mov sbp,a
 367  003C  2000     E  	call _Crom2Prom
 367  003D  2000     R  	call _Digit_Set
 367  003E              _L23:
 370  003E              #line 370 "D:\WORK\Project\Github\Segment_7_Key_TX\code\eTable.c"
 370  003E  0F01        	mov a,1
 370  003F  0200     R  	sub a,_com[0]
 370  0040  3C0A        	sz c
 370  0041  2800     R  	jmp _L24
 372  0042              #line 372 "D:\WORK\Project\Github\Segment_7_Key_TX\code\eTable.c"
 372  0042  1F00     R  	clr _com[0]
 373  0043              #line 373 "D:\WORK\Project\Github\Segment_7_Key_TX\code\eTable.c"
 373  0043  1080     R  	sz _Led_Scan_2[3]
 373  0044  2800     R  	jmp _LI2
 373  0045  1080     R  	sz _Led_Scan_2[2]
 373  0046  2800     R  	jmp _LI2
 373  0047  0700     R  	mov a,_Led_Scan_2[0]
 373  0048  0200     R  	sub a,_led_period[0]
 373  0049  0700     R  	mov a,_Led_Scan_2[1]
 373  004A  1200     R  	sbc a,_led_period[1]
 373  004B  380A        	snz c
 373  004C  2800     R  	jmp _L25
 373  004D              _LI2:
 374  004D              #line 374 "D:\WORK\Project\Github\Segment_7_Key_TX\code\eTable.c"
 374  004D  1F00     R  	clr ___led_tmr_1843[0]
 374  004E  1F00     R  	clr ___led_tmr_1843[1]
 374  004F  1F00     R  	clr ___led_tmr_1843[2]
 374  0050  1F00     R  	clr ___led_tmr_1843[3]
 374  0051  2800     R  	jmp _L19
 374  0052              _L25:
 376  0052              #line 376 "D:\WORK\Project\Github\Segment_7_Key_TX\code\eTable.c"
 376  0052  0F01        	mov a,1
 376  0053  0300     R  	add a,_Led_Scan_2[0]
 376  0054  0080     R  	mov ___led_tmr_1843[0],a
 376  0055  0F00        	mov a,0
 376  0056  1300     R  	adc a,_Led_Scan_2[1]
 376  0057  0080     R  	mov ___led_tmr_1843[1],a
 376  0058  0F00        	mov a,0
 376  0059  1300     R  	adc a,_Led_Scan_2[2]
 376  005A  0080     R  	mov ___led_tmr_1843[2],a
 376  005B  0F00        	mov a,0
 376  005C  1300     R  	adc a,_Led_Scan_2[3]
 376  005D  0080     R  	mov ___led_tmr_1843[3],a
 376  005E  2800     R  	jmp _L19
 376  005F              _L24:
 379  005F              #line 379 "D:\WORK\Project\Github\Segment_7_Key_TX\code\eTable.c"
"File: eTable.c      Assembler  Version HGASM0202      Page 11

 379  005F  1480     R  	inc _com[0]
 379  0060              _L19:
 379  0060  0003        	ret
 379  0061              _Led_Scan endp
 379  0061              #line 379 "D:\WORK\Project\Github\Segment_7_Key_TX\code\eTable.c"
 379  0061              #pragma debug scope 1 1
 379  0061              ___eea equ [30]
 379  0061              ___eed equ [31]
 379  0061              ___mp1 equ [3]
 379  0061              ___bp equ [4]
 379  0061              ___intc0 equ [14]
 379  0061              ___iar1 equ [2]
 379  0061              public _EE_Write
 379  0061              #pragma debug scope 9 1
 383  0061              #line 383 "D:\WORK\Project\Github\Segment_7_Key_TX\code\eTable.c"
 383  0000              _EE_Write .section 'code'
 383  0000              _EE_Write proc
 383  0000              public _EE_Write_2
 383  0000  0002[           local _EE_Write_2 db 2 dup(?)	; 1,1
            00
            ]
 383  0000  0080     E  	mov ra,a
 383  0001  0080     R  	mov _EE_Write_2[1],a
 383  0002              #pragma debug variable 8 9 _EE_Write_2+1 "addr"
 383  0002              #pragma debug variable 8 9 _EE_Write_2+0 "data"
 384  0002              #line 384 "D:\WORK\Project\Github\Segment_7_Key_TX\code\eTable.c"
 384  0002  0700     E  	mov a,ra
 384  0003  009E        	mov [30],a
 385  0004              #line 385 "D:\WORK\Project\Github\Segment_7_Key_TX\code\eTable.c"
 385  0004  0700     R  	mov a,_EE_Write_2[0]
 385  0005  009F        	mov [31],a
 386  0006              #line 386 "D:\WORK\Project\Github\Segment_7_Key_TX\code\eTable.c"
 386  0006  0F40        	mov a,64
 386  0007  0083        	mov [3],a
 387  0008              #line 387 "D:\WORK\Project\Github\Segment_7_Key_TX\code\eTable.c"
 387  0008  0F01        	mov a,1
 387  0009  0084        	mov [4],a
 388  000A              #line 388 "D:\WORK\Project\Github\Segment_7_Key_TX\code\eTable.c"
 388  000A  340E        	clr [14].0
 389  000B              #line 389 "D:\WORK\Project\Github\Segment_7_Key_TX\code\eTable.c"
 389  000B  3182        	set [2].3
 390  000C              #line 390 "D:\WORK\Project\Github\Segment_7_Key_TX\code\eTable.c"
 390  000C  3102        	set [2].2
 391  000D              #line 391 "D:\WORK\Project\Github\Segment_7_Key_TX\code\eTable.c"
 391  000D  300E        	set [14].0
 391  000E              _L30:
 392  000E              #line 392 "D:\WORK\Project\Github\Segment_7_Key_TX\code\eTable.c"
 392  000E  3902        	snz [2].2
 392  000F  2800     R  	jmp _L32
 394  0010              #line 394 "D:\WORK\Project\Github\Segment_7_Key_TX\code\eTable.c"
 394  0010              ;# 394 "D:\WORK\Project\Github\Segment_7_Key_TX\code\eTable.c" 1
 394  0010  0001        	clr wdt
 394  0011  2800     R  	jmp _L30
 394  0012              _L32:
 396  0012              #line 396 "D:\WORK\Project\Github\Segment_7_Key_TX\code\eTable.c"
 396  0012  1F02        	clr [2]
 397  0013              #line 397 "D:\WORK\Project\Github\Segment_7_Key_TX\code\eTable.c"
 397  0013  1F04        	clr [4]
 399  0014              #line 399 "D:\WORK\Project\Github\Segment_7_Key_TX\code\eTable.c"
 399  0014  0F01        	mov a,1
"File: eTable.c      Assembler  Version HGASM0202      Page 12

 399  0015  0003        	ret
 399  0016              _EE_Write endp
 399  0016              #line 399 "D:\WORK\Project\Github\Segment_7_Key_TX\code\eTable.c"
 399  0016              #pragma debug scope 1 1
 399  0016              public _EE_Read
 399  0016              #pragma debug scope 10 1
 402  0016              #line 402 "D:\WORK\Project\Github\Segment_7_Key_TX\code\eTable.c"
 402  0000              _EE_Read .section 'code'
 402  0000              _EE_Read proc
 402  0000  00              local _EE_Read_2 db 1 dup(?)	; 0,1
 402  0000  0080     E  	mov ra,a
 402  0001  0080     R  	mov _EE_Read_2[0],a
 402  0002              #pragma debug variable 8 10 _EE_Read_2+0 "addr"
 403  0002              #line 403 "D:\WORK\Project\Github\Segment_7_Key_TX\code\eTable.c"
 403  0002  0700     E  	mov a,ra
 403  0003  009E        	mov [30],a
 404  0004              #line 404 "D:\WORK\Project\Github\Segment_7_Key_TX\code\eTable.c"
 404  0004  0F40        	mov a,64
 404  0005  0083        	mov [3],a
 405  0006              #line 405 "D:\WORK\Project\Github\Segment_7_Key_TX\code\eTable.c"
 405  0006  0F01        	mov a,1
 405  0007  0084        	mov [4],a
 406  0008              #line 406 "D:\WORK\Project\Github\Segment_7_Key_TX\code\eTable.c"
 406  0008  340E        	clr [14].0
 407  0009              #line 407 "D:\WORK\Project\Github\Segment_7_Key_TX\code\eTable.c"
 407  0009  3082        	set [2].1
 408  000A              #line 408 "D:\WORK\Project\Github\Segment_7_Key_TX\code\eTable.c"
 408  000A  3002        	set [2].0
 409  000B              #line 409 "D:\WORK\Project\Github\Segment_7_Key_TX\code\eTable.c"
 409  000B  300E        	set [14].0
 409  000C              _L34:
 410  000C              #line 410 "D:\WORK\Project\Github\Segment_7_Key_TX\code\eTable.c"
 410  000C  3802        	snz [2].0
 410  000D  2800     R  	jmp _L36
 412  000E              #line 412 "D:\WORK\Project\Github\Segment_7_Key_TX\code\eTable.c"
 412  000E              ;# 412 "D:\WORK\Project\Github\Segment_7_Key_TX\code\eTable.c" 1
 412  000E  0001        	clr wdt
 412  000F  2800     R  	jmp _L34
 412  0010              _L36:
 414  0010              #line 414 "D:\WORK\Project\Github\Segment_7_Key_TX\code\eTable.c"
 414  0010  1F02        	clr [2]
 415  0011              #line 415 "D:\WORK\Project\Github\Segment_7_Key_TX\code\eTable.c"
 415  0011  1F04        	clr [4]
 416  0012              #line 416 "D:\WORK\Project\Github\Segment_7_Key_TX\code\eTable.c"
 416  0012  071F        	mov a,[31]
 416  0013  0080     E  	mov ra,a
 417  0014              #line 417 "D:\WORK\Project\Github\Segment_7_Key_TX\code\eTable.c"
 417  0014  0700     E  	mov a,ra
 417  0015  0003        	ret
 417  0016              _EE_Read endp
 417  0016              #line 417 "D:\WORK\Project\Github\Segment_7_Key_TX\code\eTable.c"
 417  0016              #pragma debug scope 1 1
 417  0016              public _Key_Scan
 417  0016              #pragma debug scope 11 1
 420  0016              #line 420 "D:\WORK\Project\Github\Segment_7_Key_TX\code\eTable.c"
 420  0000              _Key_Scan .section 'code'
 420  0000              _Key_Scan proc
 421  0000              #line 421 "D:\WORK\Project\Github\Segment_7_Key_TX\code\eTable.c"
 421  0000  1F00     E  	clr rd
 421  0001  3EA5        	sz [37].5
"File: eTable.c      Assembler  Version HGASM0202      Page 13

 421  0002  1480     E  	inc rd
 421  0003  1F00     E  	clr rb
 421  0004  3F25        	sz [37].6
 421  0005  1480     E  	inc rb
 421  0006  1F00     E  	clr rf
 421  0007  3D94        	sz [20].3
 421  0008  1480     E  	inc rf
 421  0009  1F00     E  	clr rg
 421  000A  3C94        	sz [20].1
 421  000B  1480     E  	inc rg
 421  000C  1F00     E  	clr rh
 421  000D  3D40        	sz [64].2
 421  000E  1480     E  	inc rh
 421  000F  1F00     E  	clr ra
 421  0010  3CC0        	sz [64].1
 421  0011  1480     E  	inc ra
 421  0012  0740        	mov a,[64]
 421  0013  0E01        	and a,1
 421  0014  0080     E  	mov rc,a
 421  0015  3000     E  	set rc.7
 421  0016  1F00     E  	clr re
 421  0017  0F06        	mov a,6
 421  0018              _LI3:
 421  0018  340A        	clr c
 421  0019  1A80     E  	rlc rd
 421  001A  1A80     E  	rlc re
 421  001B  1785        	sdz acc
 421  001C  2800     R  	jmp _LI3
 421  001D  0700     E  	mov a,rc
 421  001E  0580     E  	orm a,rd
 421  001F  1F00     E  	clr rc
 421  0020  0F05        	mov a,5
 421  0021              _LI4:
 421  0021  340A        	clr c
 421  0022  1A80     E  	rlc rb
 421  0023  1A80     E  	rlc rc
 421  0024  1785        	sdz acc
 421  0025  2800     R  	jmp _LI4
 421  0026  0700     E  	mov a,rb
 421  0027  0580     E  	orm a,rd
 421  0028  0700     E  	mov a,rf
 421  0029  0080     E  	mov rb,a
 421  002A  1F00     E  	clr rc
 421  002B  0F04        	mov a,4
 421  002C              _LI5:
 421  002C  340A        	clr c
 421  002D  1A80     E  	rlc rb
 421  002E  1A80     E  	rlc rc
 421  002F  1785        	sdz acc
 421  0030  2800     R  	jmp _LI5
 421  0031  0700     E  	mov a,rb
 421  0032  0580     E  	orm a,rd
 421  0033  0700     E  	mov a,rg
 421  0034  0080     E  	mov rf,a
 421  0035  1F00     E  	clr rg
 421  0036  0F03        	mov a,3
 421  0037              _LI6:
 421  0037  340A        	clr c
 421  0038  1A80     E  	rlc rf
 421  0039  1A80     E  	rlc rg
"File: eTable.c      Assembler  Version HGASM0202      Page 14

 421  003A  1785        	sdz acc
 421  003B  2800     R  	jmp _LI6
 421  003C  0700     E  	mov a,rf
 421  003D  0580     E  	orm a,rd
 421  003E  0700     E  	mov a,rh
 421  003F  0080     E  	mov rf,a
 421  0040  1F00     E  	clr rg
 421  0041  340A        	clr c
 421  0042  1A80     E  	rlc rf
 421  0043  1A80     E  	rlc rg
 421  0044  340A        	clr c
 421  0045  1A80     E  	rlc rf
 421  0046  1A80     E  	rlc rg
 421  0047  0700     E  	mov a,rd
 421  0048  0580     E  	orm a,rf
 421  0049  0700     E  	mov a,ra
 421  004A  0380     E  	addm a,ra
 421  004B  0700     E  	mov a,ra
 421  004C  0580     E  	orm a,rf
 421  004D  0100     E  	cpla rf
 421  004E  0080     E  	mov rf,a
 422  004F              #line 422 "D:\WORK\Project\Github\Segment_7_Key_TX\code\eTable.c"
 422  004F  0700     E  	mov a,rf
 422  0050  0003        	ret
 422  0051              _Key_Scan endp
 422  0051              #line 422 "D:\WORK\Project\Github\Segment_7_Key_TX\code\eTable.c"
 422  0051              #pragma debug scope 1 1
 422  0051              ___usr equ [68]
 422  0051              ___txr_rxr equ [72]
 422  0051              public _RS232_SendBuf
 422  0051              #pragma debug scope 12 1
 434  0051              #line 434 "D:\WORK\Project\Github\Segment_7_Key_TX\code\eTable.c"
 434  0000              _RS232_SendBuf .section 'code'
 434  0000              _RS232_SendBuf proc
 434  0000              public _RS232_SendBuf_2
 434  0000  0003[           local _RS232_SendBuf_2 db 3 dup(?)	; 3,0
            00
            ]
 434  0003              #pragma debug pointer 42 8 12
 434  0003              #pragma debug pointer 42 8 12
 434  0003              #pragma debug variable 42 12 _RS232_SendBuf_2+0 "buf"
 434  0003              #pragma debug variable 8 12 _RS232_SendBuf_2+2 "size"
 434  0000  0700     R  	mov a,_RS232_SendBuf_2[2]
 434  0001  0080     E  	mov rb,a
 434  0002  0F11        	mov a,17
 434  0003  0200     E  	sub a,rb
 434  0004  3C0A        	sz c
 434  0005  2800     R  	jmp _L39
 434  0006  0F11        	mov a,17
 434  0007  0080     E  	mov rb,a
 434  0008              _L39:
 438  0008              #line 438 "D:\WORK\Project\Github\Segment_7_Key_TX\code\eTable.c"
 438  0008  1F00     E  	clr ra
 438  0009  2800     R  	jmp _L40
 438  000A              _L45:
 440  000A              #line 440 "D:\WORK\Project\Github\Segment_7_Key_TX\code\eTable.c"
 440  000A  3C44        	sz [68].0
 440  000B  2800     R  	jmp _L46
 440  000C              ;# 440 "D:\WORK\Project\Github\Segment_7_Key_TX\code\eTable.c" 1
 440  000C  0001        	clr wdt
"File: eTable.c      Assembler  Version HGASM0202      Page 15

 440  000D  2800     R  	jmp _L45
 440  000E              _L46:
 441  000E              #line 441 "D:\WORK\Project\Github\Segment_7_Key_TX\code\eTable.c"
 441  000E  0700     E  	mov a,ra
 441  000F  0300     R  	add a,_RS232_SendBuf_2[0]
 441  0010  0083        	mov mp,a
 441  0011  1F05        	clr acc
 441  0012  1300     R  	adc a,_RS232_SendBuf_2[1]
 441  0013  0081        	mov sbp,a
 441  0014  2000     E  	call _Crom2Prom
 441  0015  00C8        	mov [72],a
 441  0016              _L42:
 442  0016              #line 442 "D:\WORK\Project\Github\Segment_7_Key_TX\code\eTable.c"
 442  0016  3CC4        	sz [68].1
 442  0017  2800     R  	jmp _L47
 442  0018              ;# 442 "D:\WORK\Project\Github\Segment_7_Key_TX\code\eTable.c" 1
 442  0018  0001        	clr wdt
 442  0019  2800     R  	jmp _L42
 442  001A              _L47:
 438  001A              #line 438 "D:\WORK\Project\Github\Segment_7_Key_TX\code\eTable.c"
 438  001A  1480     E  	inc ra
 438  001B              _L40:
 438  001B  0700     E  	mov a,ra
 438  001C  0200     E  	sub a,rb
 438  001D  380A        	snz c
 438  001E  2800     R  	jmp _L45
 438  001F  0003        	ret
 438  0020              _RS232_SendBuf endp
 438  0020              #line 438 "D:\WORK\Project\Github\Segment_7_Key_TX\code\eTable.c"
 438  0020              #pragma debug scope 1 1
 438  0000              @crom	.section 'crom'
 438  0000              _LC0:
 438  0000              	db 040h,041h,032h,00h
 438  0002              public _Key_Tx
 438  0002              #pragma debug scope 13 1
 425  0002              #line 425 "D:\WORK\Project\Github\Segment_7_Key_TX\code\eTable.c"
 425  0000              _Key_Tx .section 'code'
 425  0000              _Key_Tx proc
 426  0000              #line 426 "D:\WORK\Project\Github\Segment_7_Key_TX\code\eTable.c"
 426  0000  0F00     R  	mov a,low offset _LC0
 426  0001  0080     E  	mov _my_strcpy_2[2],a
 426  0002  0F00     R  	mov a,high offset _LC0
 426  0003  0080     E  	mov _my_strcpy_2[3],a
 426  0004  0F00     R  	mov a,low offset _buff_tx
 426  0005  0080     E  	mov _my_strcpy_2[0],a
 426  0006  0F00     R  	mov a,high offset _buff_tx
 426  0007  0080     E  	mov _my_strcpy_2[1],a
 426  0008  2000     E  	call _my_strcpy
 427  0009              #line 427 "D:\WORK\Project\Github\Segment_7_Key_TX\code\eTable.c"
 427  0009  1100     R  	swapa _key_stat[0]
 427  000A  0E0F        	and a,0fh
 427  000B  0080     E  	mov ra,a
 427  000C  0700     E  	mov a,ra
 427  000D  2000     E  	call _Hex2char
 427  000E  0080     E  	mov ra,a
 427  000F  0700     E  	mov a,ra
 427  0010  0080     R  	mov _buff_tx[3],a
 428  0011              #line 428 "D:\WORK\Project\Github\Segment_7_Key_TX\code\eTable.c"
 428  0011  0700     R  	mov a,_key_stat[0]
 428  0012  0E0F        	and a,15
"File: eTable.c      Assembler  Version HGASM0202      Page 16

 428  0013  0080     E  	mov ra,a
 428  0014  0700     E  	mov a,ra
 428  0015  2000     E  	call _Hex2char
 428  0016  0080     E  	mov ra,a
 428  0017  0700     E  	mov a,ra
 428  0018  0080     R  	mov _buff_tx[4],a
 429  0019              #line 429 "D:\WORK\Project\Github\Segment_7_Key_TX\code\eTable.c"
 429  0019  1F00     R  	clr _buff_tx[5]
 430  001A              #line 430 "D:\WORK\Project\Github\Segment_7_Key_TX\code\eTable.c"
 430  001A  0F06        	mov a,6
 430  001B  0080     R  	mov _RS232_SendBuf_2[2],a
 430  001C  0F00     R  	mov a,low offset _buff_tx
 430  001D  0080     R  	mov _RS232_SendBuf_2[0],a
 430  001E  0F00     R  	mov a,high offset _buff_tx
 430  001F  0080     R  	mov _RS232_SendBuf_2[1],a
 430  0020  2000     R  	call _RS232_SendBuf
 430  0021  0003        	ret
 430  0022              _Key_Tx endp
 430  0022              #line 430 "D:\WORK\Project\Github\Segment_7_Key_TX\code\eTable.c"
 430  0022              #pragma debug scope 1 1
 430  0002              @crom	.section 'crom'
 430  0002              _LC1:
 430  0002              	db 040h,057h,045h,04ch,043h,04fh,04dh,045h,00h
 430  0007              @crom	.section 'crom'
 430  0007              _LC2:
 430  0007              	db 040h,041h,031h,00h
 430  0009              @crom	.section 'crom'
 430  0009              _LC3:
 430  0009              	db 040h,041h,033h,00h
 430  000B              @crom	.section 'crom'
 430  000B              _LC4:
 430  000B              	db 040h,041h,034h,00h
 430  000D              @crom	.section 'crom'
 430  000D              _LC5:
 430  000D              	db 040h,041h,035h,00h
 430  000F              @crom	.section 'crom'
 430  000F              _LC6:
 430  000F              	db 040h,056h,045h,052h,00h
 430  0011              @crom	.section 'crom'
 430  0011              _LC7:
 430  0011              	db 040h,057h,052h,04fh,04eh,047h,00h
 430  0015              public _Command_Parse
 430  0015              #pragma debug scope 14 1
 101  0015              #line 101 "D:\WORK\Project\Github\Segment_7_Key_TX\code\eTable.c"
 101  0000              _Command_Parse .section 'code'
 101  0000              _Command_Parse proc
 101  0000  0008[           local _Command_Parse_2 db 8 dup(?)	; 0,8
            00
            ]
 101  0008              #pragma debug variable 8 14 _Command_Parse_2+4 "ee_addr"
 101  0008              #pragma debug variable 8 14 _Command_Parse_2+3 "ee_data"
 101  0008              #pragma debug variable 8 14 _Command_Parse_2+2 "u8temp"
 101  0008              #pragma debug variable 8 14 _Command_Parse_2+1 "i"
 101  0008              #pragma debug variable 8 14 _Command_Parse_2+0 "n"
 104  0008              #line 104 "D:\WORK\Project\Github\Segment_7_Key_TX\code\eTable.c"
 104  0000  0700     R  	mov a,_buff_rx[0]
 104  0001  0A41        	sub a,65
 104  0002  390A        	snz z
 104  0003  2800     R  	jmp _L50
 104  0004              #line 104 "D:\WORK\Project\Github\Segment_7_Key_TX\code\eTable.c"
"File: eTable.c      Assembler  Version HGASM0202      Page 17

 104  0004  0700     R  	mov a,_buff_rx[1]
 104  0005  0A30        	sub a,48
 104  0006  390A        	snz z
 104  0007  2800     R  	jmp _L50
 106  0008              #line 106 "D:\WORK\Project\Github\Segment_7_Key_TX\code\eTable.c"
 106  0008  0F00     R  	mov a,low offset _LC1
 106  0009  0080     E  	mov _my_strcpy_2[2],a
 106  000A  0F00     R  	mov a,high offset _LC1
 106  000B  0080     E  	mov _my_strcpy_2[3],a
 106  000C  2800     R  	jmp _L67
 106  000D              _L50:
 108  000D              #line 108 "D:\WORK\Project\Github\Segment_7_Key_TX\code\eTable.c"
 108  000D  0700     R  	mov a,_buff_rx[0]
 108  000E  0A41        	sub a,65
 108  000F  390A        	snz z
 108  0010  2800     R  	jmp _L52
 108  0011  0700     R  	mov a,_buff_rx[1]
 108  0012  0A31        	sub a,49
 108  0013  390A        	snz z
 108  0014  2800     R  	jmp _L52
 110  0015              #line 110 "D:\WORK\Project\Github\Segment_7_Key_TX\code\eTable.c"
 110  0015  0700     R  	mov a,_buff_rx[2]
 110  0016  0080     R  	mov _height_str[2],a
 111  0017              #line 111 "D:\WORK\Project\Github\Segment_7_Key_TX\code\eTable.c"
 111  0017  0700     R  	mov a,_buff_rx[3]
 111  0018  0080     R  	mov _height_str[1],a
 112  0019              #line 112 "D:\WORK\Project\Github\Segment_7_Key_TX\code\eTable.c"
 112  0019  0700     R  	mov a,_buff_rx[4]
 112  001A  0080     R  	mov _height_str[0],a
 114  001B              #line 114 "D:\WORK\Project\Github\Segment_7_Key_TX\code\eTable.c"
 114  001B  0F00     R  	mov a,low offset _LC2
 114  001C  0080     E  	mov _my_strcpy_2[2],a
 114  001D  0F00     R  	mov a,high offset _LC2
 114  001E  0080     E  	mov _my_strcpy_2[3],a
 114  001F  0F00     R  	mov a,low offset _buff_tx
 114  0020  0080     E  	mov _my_strcpy_2[0],a
 114  0021  0F00     R  	mov a,high offset _buff_tx
 114  0022  0080     E  	mov _my_strcpy_2[1],a
 114  0023  2000     E  	call _my_strcpy
 115  0024              #line 115 "D:\WORK\Project\Github\Segment_7_Key_TX\code\eTable.c"
 115  0024  0700     R  	mov a,_height_str[2]
 115  0025  0080     R  	mov _buff_tx[3],a
 116  0026              #line 116 "D:\WORK\Project\Github\Segment_7_Key_TX\code\eTable.c"
 116  0026  0700     R  	mov a,_height_str[1]
 116  0027  0080     R  	mov _buff_tx[4],a
 117  0028              #line 117 "D:\WORK\Project\Github\Segment_7_Key_TX\code\eTable.c"
 117  0028  0700     R  	mov a,_height_str[0]
 117  0029  0080     R  	mov _buff_tx[5],a
 118  002A              #line 118 "D:\WORK\Project\Github\Segment_7_Key_TX\code\eTable.c"
 118  002A  1F00     R  	clr _buff_tx[6]
 119  002B              #line 119 "D:\WORK\Project\Github\Segment_7_Key_TX\code\eTable.c"
 119  002B  0F07        	mov a,7
 119  002C  0080     R  	mov _RS232_SendBuf_2[2],a
 119  002D  2800     R  	jmp _L66
 119  002E              _L52:
 121  002E              #line 121 "D:\WORK\Project\Github\Segment_7_Key_TX\code\eTable.c"
 121  002E  0700     R  	mov a,_buff_rx[0]
 121  002F  0A41        	sub a,65
 121  0030  390A        	snz z
 121  0031  2800     R  	jmp _L53
"File: eTable.c      Assembler  Version HGASM0202      Page 18

 121  0032  0700     R  	mov a,_buff_rx[1]
 121  0033  0A32        	sub a,50
 121  0034  390A        	snz z
 121  0035  2800     R  	jmp _L53
 123  0036              #line 123 "D:\WORK\Project\Github\Segment_7_Key_TX\code\eTable.c"
 123  0036  0700     R  	mov a,_buff_rx[2]
 123  0037  0A30        	sub a,48
 123  0038  390A        	snz z
 123  0039  2800     R  	jmp _L54
 124  003A              #line 124 "D:\WORK\Project\Github\Segment_7_Key_TX\code\eTable.c"
 124  003A  3400     R  	clr _key_cont
 124  003B  2800     R  	jmp _L55
 124  003C              _L54:
 126  003C              #line 126 "D:\WORK\Project\Github\Segment_7_Key_TX\code\eTable.c"
 126  003C  3000     R  	set _key_cont
 126  003D              _L55:
 127  003D              #line 127 "D:\WORK\Project\Github\Segment_7_Key_TX\code\eTable.c"
 127  003D  2000     R  	call _Key_Tx
 127  003E  2800     R  	jmp _L49
 127  003F              _L53:
 129  003F              #line 129 "D:\WORK\Project\Github\Segment_7_Key_TX\code\eTable.c"
 129  003F  0700     R  	mov a,_buff_rx[0]
 129  0040  0A41        	sub a,65
 129  0041  390A        	snz z
 129  0042  2800     R  	jmp _L56
 129  0043  0700     R  	mov a,_buff_rx[1]
 129  0044  0A33        	sub a,51
 129  0045  390A        	snz z
 129  0046  2800     R  	jmp _L56
 131  0047              #line 131 "D:\WORK\Project\Github\Segment_7_Key_TX\code\eTable.c"
 131  0047  0700     R  	mov a,_buff_rx[2]
 131  0048  0080     E  	mov ra,a
 131  0049  0700     E  	mov a,ra
 131  004A  2000     E  	call _Char2hex
 131  004B  0080     E  	mov ra,a
 131  004C  0700     E  	mov a,ra
 131  004D  0080     R  	mov _Command_Parse_2[0],a
 132  004E              #line 132 "D:\WORK\Project\Github\Segment_7_Key_TX\code\eTable.c"
 132  004E  0F07        	mov a,7
 132  004F  0200     R  	sub a,_Command_Parse_2[0]
 132  0050  3C0A        	sz c
 132  0051  2800     R  	jmp _L57
 133  0052              #line 133 "D:\WORK\Project\Github\Segment_7_Key_TX\code\eTable.c"
 133  0052  0F07        	mov a,7
 133  0053  0080     R  	mov _Command_Parse_2[0],a
 133  0054              _L57:
 134  0054              #line 134 "D:\WORK\Project\Github\Segment_7_Key_TX\code\eTable.c"
 134  0054  0700     R  	mov a,_buff_rx[3]
 134  0055  0080     E  	mov ra,a
 134  0056  0700     E  	mov a,ra
 134  0057  2000     E  	call _Char2hex
 134  0058  0080     R  	mov _Command_Parse_2[5],a
 134  0059  0700     R  	mov a,_buff_rx[4]
 134  005A  0080     E  	mov ra,a
 134  005B  0700     E  	mov a,ra
 134  005C  2000     E  	call _Char2hex
 134  005D  0080     E  	mov ra,a
 134  005E  0700     R  	mov a,_Command_Parse_2[5]
 134  005F  0080     E  	mov rb,a
 134  0060  1100     E  	swapa rb
"File: eTable.c      Assembler  Version HGASM0202      Page 19

 134  0061  0EF0        	and a,0f0h 
 134  0062  0080     E  	mov rb,a
 134  0063  0700     E  	mov a,rb
 134  0064  0500     E  	or a,ra
 134  0065  0080     R  	mov _Command_Parse_2[4],a
 135  0066              #line 135 "D:\WORK\Project\Github\Segment_7_Key_TX\code\eTable.c"
 135  0066  0F00     R  	mov a,low offset _LC3
 135  0067  0080     E  	mov _my_strcpy_2[2],a
 135  0068  0F00     R  	mov a,high offset _LC3
 135  0069  0080     E  	mov _my_strcpy_2[3],a
 135  006A  0F00     R  	mov a,low offset _buff_tx
 135  006B  0080     E  	mov _my_strcpy_2[0],a
 135  006C  0F00     R  	mov a,high offset _buff_tx
 135  006D  0080     E  	mov _my_strcpy_2[1],a
 135  006E  2000     E  	call _my_strcpy
 136  006F              #line 136 "D:\WORK\Project\Github\Segment_7_Key_TX\code\eTable.c"
 136  006F  1F00     R  	clr _Command_Parse_2[1]
 136  0070              _L58:
 136  0070  0700     R  	mov a,_Command_Parse_2[1]
 136  0071  0200     R  	sub a,_Command_Parse_2[0]
 136  0072  3C0A        	sz c
 136  0073  2800     R  	jmp _L68
 138  0074              #line 138 "D:\WORK\Project\Github\Segment_7_Key_TX\code\eTable.c"
 138  0074  0700     R  	mov a,_Command_Parse_2[1]
 138  0075  0300     R  	add a,_Command_Parse_2[4]
 138  0076  0080     E  	mov ra,a
 138  0077  0700     E  	mov a,ra
 138  0078  2000     R  	call _EE_Read
 138  0079  0080     E  	mov ra,a
 138  007A  0700     E  	mov a,ra
 138  007B  0080     R  	mov _Command_Parse_2[3],a
 139  007C              #line 139 "D:\WORK\Project\Github\Segment_7_Key_TX\code\eTable.c"
 139  007C  0700     R  	mov a,_Command_Parse_2[1]
 139  007D  0080     R  	mov _Command_Parse_2[5],a
 139  007E  1100     R  	swapa _Command_Parse_2[3]
 139  007F  0E0F        	and a,0fh
 139  0080  0080     E  	mov ra,a
 139  0081  0700     E  	mov a,ra
 139  0082  2000     E  	call _Hex2char
 139  0083  0080     E  	mov ra,a
 139  0084  0700     R  	mov a,_Command_Parse_2[5]
 139  0085  0080     E  	mov rb,a
 139  0086  1F00     E  	clr rc
 139  0087  340A        	clr c
 139  0088  1A80     E  	rlc rb
 139  0089  1A80     E  	rlc rc
 139  008A  0F00     R  	mov a,low (offset _buff_tx+3)
 139  008B  0300     E  	add a,rb
 139  008C  0083        	mov mp,a
 139  008D  0F00     R  	mov a,high (offset _buff_tx+3)
 139  008E  1300     E  	adc a,rc
 139  008F  0081        	mov sbp,a
 139  0090  0701        	mov a,sbp
 139  0091  0084        	mov bp,a
 139  0092  0700     E  	mov a,ra
 139  0093  0082        	mov ir,a
 140  0094              #line 140 "D:\WORK\Project\Github\Segment_7_Key_TX\code\eTable.c"
 140  0094  0700     R  	mov a,_Command_Parse_2[1]
 140  0095  0080     R  	mov _Command_Parse_2[5],a
 140  0096  0700     R  	mov a,_Command_Parse_2[3]
"File: eTable.c      Assembler  Version HGASM0202      Page 20

 140  0097  0E0F        	and a,15
 140  0098  0080     E  	mov ra,a
 140  0099  0700     E  	mov a,ra
 140  009A  2000     E  	call _Hex2char
 140  009B  0080     E  	mov ra,a
 140  009C  0F02        	mov a,2
 140  009D  0300     R  	add a,_Command_Parse_2[5]
 140  009E  0080     E  	mov rb,a
 140  009F  0F00        	mov a,0
 140  00A0  1F00     E  	clr rc
 140  00A1  1380     E  	adcm a,rc
 140  00A2  340A        	clr c
 140  00A3  1A80     E  	rlc rb
 140  00A4  1A80     E  	rlc rc
 140  00A5  0F00     R  	mov a,low offset _buff_tx
 140  00A6  0300     E  	add a,rb
 140  00A7  0083        	mov mp,a
 140  00A8  0F00     R  	mov a,high offset _buff_tx
 140  00A9  1300     E  	adc a,rc
 140  00AA  0081        	mov sbp,a
 140  00AB  0701        	mov a,sbp
 140  00AC  0084        	mov bp,a
 140  00AD  0700     E  	mov a,ra
 140  00AE  0082        	mov ir,a
 136  00AF              #line 136 "D:\WORK\Project\Github\Segment_7_Key_TX\code\eTable.c"
 136  00AF  1480     R  	inc _Command_Parse_2[1]
 136  00B0  2800     R  	jmp _L58
 136  00B1              _L68:
 142  00B1              #line 142 "D:\WORK\Project\Github\Segment_7_Key_TX\code\eTable.c"
 142  00B1  0700     R  	mov a,_Command_Parse_2[0]
 142  00B2  0080     E  	mov rb,a
 142  00B3  1F00     E  	clr rc
 142  00B4  340A        	clr c
 142  00B5  1A80     E  	rlc rb
 142  00B6  1A80     E  	rlc rc
 142  00B7  0F00     R  	mov a,low (offset _buff_tx+3)
 142  00B8  0300     E  	add a,rb
 142  00B9  0083        	mov mp,a
 142  00BA  0F00     R  	mov a,high (offset _buff_tx+3)
 142  00BB  1300     E  	adc a,rc
 142  00BC  0081        	mov sbp,a
 142  00BD  0701        	mov a,sbp
 142  00BE  0084        	mov bp,a
 142  00BF  0F00        	mov a,0
 142  00C0  0082        	mov ir,a
 143  00C1              #line 143 "D:\WORK\Project\Github\Segment_7_Key_TX\code\eTable.c"
 143  00C1  0F02        	mov a,2
 143  00C2  0300     R  	add a,_Command_Parse_2[0]
 143  00C3  0080     E  	mov rb,a
 143  00C4  0F00        	mov a,0
 143  00C5  1F00     E  	clr rc
 143  00C6  1380     E  	adcm a,rc
 143  00C7  0700     E  	mov a,rb
 143  00C8  0300     E  	add a,rb
 143  00C9  0080     R  	mov _RS232_SendBuf_2[2],a
 143  00CA  2800     R  	jmp _L66
 143  00CB              _L56:
 145  00CB              #line 145 "D:\WORK\Project\Github\Segment_7_Key_TX\code\eTable.c"
 145  00CB  0700     R  	mov a,_buff_rx[0]
 145  00CC  0A41        	sub a,65
"File: eTable.c      Assembler  Version HGASM0202      Page 21

 145  00CD  390A        	snz z
 145  00CE  2800     R  	jmp _L60
 145  00CF  0700     R  	mov a,_buff_rx[1]
 145  00D0  0A34        	sub a,52
 145  00D1  390A        	snz z
 145  00D2  2800     R  	jmp _L60
 147  00D3              #line 147 "D:\WORK\Project\Github\Segment_7_Key_TX\code\eTable.c"
 147  00D3  0700     R  	mov a,_buff_rx[2]
 147  00D4  0080     E  	mov ra,a
 147  00D5  0700     E  	mov a,ra
 147  00D6  2000     E  	call _Char2hex
 147  00D7  0080     R  	mov _Command_Parse_2[5],a
 147  00D8  0700     R  	mov a,_buff_rx[3]
 147  00D9  0080     E  	mov ra,a
 147  00DA  0700     E  	mov a,ra
 147  00DB  2000     E  	call _Char2hex
 147  00DC  0080     E  	mov ra,a
 147  00DD  0700     R  	mov a,_Command_Parse_2[5]
 147  00DE  0080     E  	mov rb,a
 147  00DF  1100     E  	swapa rb
 147  00E0  0EF0        	and a,0f0h 
 147  00E1  0080     E  	mov rb,a
 147  00E2  0700     E  	mov a,rb
 147  00E3  0500     E  	or a,ra
 147  00E4  0080     R  	mov _Command_Parse_2[4],a
 148  00E5              #line 148 "D:\WORK\Project\Github\Segment_7_Key_TX\code\eTable.c"
 148  00E5  0700     R  	mov a,_buff_rx[4]
 148  00E6  0080     E  	mov ra,a
 148  00E7  0700     E  	mov a,ra
 148  00E8  2000     E  	call _Char2hex
 148  00E9  0080     R  	mov _Command_Parse_2[5],a
 148  00EA  0700     R  	mov a,_buff_rx[5]
 148  00EB  0080     E  	mov ra,a
 148  00EC  0700     E  	mov a,ra
 148  00ED  2000     E  	call _Char2hex
 148  00EE  0080     E  	mov ra,a
 148  00EF  0700     R  	mov a,_Command_Parse_2[5]
 148  00F0  0080     E  	mov rb,a
 148  00F1  1100     E  	swapa rb
 148  00F2  0EF0        	and a,0f0h 
 148  00F3  0080     E  	mov rb,a
 148  00F4  0700     E  	mov a,rb
 148  00F5  0500     E  	or a,ra
 148  00F6  0080     R  	mov _Command_Parse_2[3],a
 149  00F7              #line 149 "D:\WORK\Project\Github\Segment_7_Key_TX\code\eTable.c"
 149  00F7  0700     R  	mov a,_Command_Parse_2[4]
 149  00F8  0080     E  	mov ra,a
 149  00F9  0700     R  	mov a,_Command_Parse_2[3]
 149  00FA  0080     R  	mov _EE_Write_2[0],a
 149  00FB  0700     E  	mov a,ra
 149  00FC  2000     R  	call _EE_Write
 150  00FD              #line 150 "D:\WORK\Project\Github\Segment_7_Key_TX\code\eTable.c"
 150  00FD  1F80     R  	set _Command_Parse_2[3]
 151  00FE              #line 151 "D:\WORK\Project\Github\Segment_7_Key_TX\code\eTable.c"
 151  00FE  0700     R  	mov a,_Command_Parse_2[4]
 151  00FF  0080     E  	mov ra,a
 151  0100  0700     E  	mov a,ra
 151  0101  2000     R  	call _EE_Read
 151  0102  0080     E  	mov ra,a
 151  0103  0700     E  	mov a,ra
"File: eTable.c      Assembler  Version HGASM0202      Page 22

 151  0104  0080     R  	mov _Command_Parse_2[3],a
 152  0105              #line 152 "D:\WORK\Project\Github\Segment_7_Key_TX\code\eTable.c"
 152  0105  0F00     R  	mov a,low offset _LC4
 152  0106  0080     E  	mov _my_strcpy_2[2],a
 152  0107  0F00     R  	mov a,high offset _LC4
 152  0108  0080     E  	mov _my_strcpy_2[3],a
 152  0109  0F00     R  	mov a,low offset _buff_tx
 152  010A  0080     E  	mov _my_strcpy_2[0],a
 152  010B  0F00     R  	mov a,high offset _buff_tx
 152  010C  0080     E  	mov _my_strcpy_2[1],a
 152  010D  2000     E  	call _my_strcpy
 153  010E              #line 153 "D:\WORK\Project\Github\Segment_7_Key_TX\code\eTable.c"
 153  010E  1100     R  	swapa _Command_Parse_2[3]
 153  010F  0E0F        	and a,0fh
 153  0110  0080     E  	mov ra,a
 153  0111  0700     E  	mov a,ra
 153  0112  2000     E  	call _Hex2char
 153  0113  0080     E  	mov ra,a
 153  0114  0700     E  	mov a,ra
 153  0115  0080     R  	mov _buff_tx[3],a
 154  0116              #line 154 "D:\WORK\Project\Github\Segment_7_Key_TX\code\eTable.c"
 154  0116  0700     R  	mov a,_Command_Parse_2[3]
 154  0117  0E0F        	and a,15
 154  0118  0080     E  	mov ra,a
 154  0119  0700     E  	mov a,ra
 154  011A  2000     E  	call _Hex2char
 154  011B  0080     E  	mov ra,a
 154  011C  0700     E  	mov a,ra
 154  011D  0080     R  	mov _buff_tx[4],a
 155  011E              #line 155 "D:\WORK\Project\Github\Segment_7_Key_TX\code\eTable.c"
 155  011E  1F00     R  	clr _buff_tx[5]
 156  011F              #line 156 "D:\WORK\Project\Github\Segment_7_Key_TX\code\eTable.c"
 156  011F  0F06        	mov a,6
 156  0120  0080     R  	mov _RS232_SendBuf_2[2],a
 156  0121  2800     R  	jmp _L66
 156  0122              _L60:
 158  0122              #line 158 "D:\WORK\Project\Github\Segment_7_Key_TX\code\eTable.c"
 158  0122  0700     R  	mov a,_buff_rx[0]
 158  0123  0A41        	sub a,65
 158  0124  390A        	snz z
 158  0125  2800     R  	jmp _L61
 158  0126  0700     R  	mov a,_buff_rx[1]
 158  0127  0A35        	sub a,53
 158  0128  390A        	snz z
 158  0129  2800     R  	jmp _L61
 160  012A              #line 160 "D:\WORK\Project\Github\Segment_7_Key_TX\code\eTable.c"
 160  012A  0700     R  	mov a,_buff_rx[2]
 160  012B  0080     E  	mov ra,a
 160  012C  0700     E  	mov a,ra
 160  012D  2000     E  	call _Char2hex
 160  012E  0080     E  	mov ra,a
 160  012F  0700     E  	mov a,ra
 160  0130  0080     R  	mov _Command_Parse_2[2],a
 161  0131              #line 161 "D:\WORK\Project\Github\Segment_7_Key_TX\code\eTable.c"
 161  0131  0700     R  	mov a,_Command_Parse_2[2]
 161  0132  0080     E  	mov ra,a
 161  0133  0700     E  	mov a,ra
 161  0134  2000     R  	call _Led_Current_Set
 162  0135              #line 162 "D:\WORK\Project\Github\Segment_7_Key_TX\code\eTable.c"
 162  0135  0F00     R  	mov a,low offset _LC5
"File: eTable.c      Assembler  Version HGASM0202      Page 23

 162  0136  0080     E  	mov _my_strcpy_2[2],a
 162  0137  0F00     R  	mov a,high offset _LC5
 162  0138  0080     E  	mov _my_strcpy_2[3],a
 162  0139  0F00     R  	mov a,low offset _buff_tx
 162  013A  0080     E  	mov _my_strcpy_2[0],a
 162  013B  0F00     R  	mov a,high offset _buff_tx
 162  013C  0080     E  	mov _my_strcpy_2[1],a
 162  013D  2000     E  	call _my_strcpy
 163  013E              #line 163 "D:\WORK\Project\Github\Segment_7_Key_TX\code\eTable.c"
 163  013E  0700     R  	mov a,_buff_rx[2]
 163  013F  0080     R  	mov _buff_tx[3],a
 164  0140              #line 164 "D:\WORK\Project\Github\Segment_7_Key_TX\code\eTable.c"
 164  0140  1F00     R  	clr _buff_tx[4]
 165  0141              #line 165 "D:\WORK\Project\Github\Segment_7_Key_TX\code\eTable.c"
 165  0141  0F05        	mov a,5
 165  0142  0080     R  	mov _RS232_SendBuf_2[2],a
 165  0143  2800     R  	jmp _L66
 165  0144              _L61:
 167  0144              #line 167 "D:\WORK\Project\Github\Segment_7_Key_TX\code\eTable.c"
 167  0144  0700     R  	mov a,_buff_rx[0]
 167  0145  0A41        	sub a,65
 167  0146  390A        	snz z
 167  0147  2800     R  	jmp _L62
 167  0148  0700     R  	mov a,_buff_rx[1]
 167  0149  0A36        	sub a,54
 167  014A  390A        	snz z
 167  014B  2800     R  	jmp _L62
 169  014C              #line 169 "D:\WORK\Project\Github\Segment_7_Key_TX\code\eTable.c"
 169  014C  0700     R  	mov a,_buff_rx[2]
 169  014D  0080     E  	mov ra,a
 169  014E  0700     E  	mov a,ra
 169  014F  2000     E  	call _Char2hex
 169  0150  0080     R  	mov _Command_Parse_2[5],a
 169  0151  0700     R  	mov a,_buff_rx[3]
 169  0152  0080     E  	mov ra,a
 169  0153  0700     E  	mov a,ra
 169  0154  2000     E  	call _Char2hex
 169  0155  0080     R  	mov _Command_Parse_2[6],a
 169  0156  0700     R  	mov a,_buff_rx[4]
 169  0157  0080     E  	mov ra,a
 169  0158  0700     E  	mov a,ra
 169  0159  2000     E  	call _Char2hex
 169  015A  0080     R  	mov _Command_Parse_2[7],a
 169  015B  0700     R  	mov a,_buff_rx[5]
 169  015C  0080     E  	mov ra,a
 169  015D  0700     E  	mov a,ra
 169  015E  2000     E  	call _Char2hex
 169  015F  0080     E  	mov ra,a
 169  0160  0700     R  	mov a,_Command_Parse_2[5]
 169  0161  0080     E  	mov _builtin_holtek_mulhi3_2[0],a
 169  0162  1F00     E  	clr _builtin_holtek_mulhi3_2[1]
 169  0163  0FE8        	mov a,232
 169  0164  0080     E  	mov _builtin_holtek_mulhi3_2[2],a
 169  0165  0F03        	mov a,3
 169  0166  0080     E  	mov _builtin_holtek_mulhi3_2[3],a
 169  0167  2000     E  	call _builtin_holtek_mulhi3
 169  0168  0700     E  	mov a,_builtin_holtek_mulhi3_2[4]  
 169  0169  0080     E  	mov rd,a  
 169  016A  0700     E  	mov a,_builtin_holtek_mulhi3_2[5]  
 169  016B  0080     E  	mov re,a
"File: eTable.c      Assembler  Version HGASM0202      Page 24

 169  016C  0700     R  	mov a,_Command_Parse_2[6]
 169  016D  0080     E  	mov _builtin_holtek_mulhi3_2[0],a
 169  016E  1F00     E  	clr _builtin_holtek_mulhi3_2[1]
 169  016F  0F64        	mov a,100
 169  0170  0080     E  	mov _builtin_holtek_mulhi3_2[2],a
 169  0171  0F00        	mov a,0
 169  0172  0080     E  	mov _builtin_holtek_mulhi3_2[3],a
 169  0173  2000     E  	call _builtin_holtek_mulhi3
 169  0174  0700     E  	mov a,_builtin_holtek_mulhi3_2[4]  
 169  0175  0080     E  	mov rb,a  
 169  0176  0700     E  	mov a,_builtin_holtek_mulhi3_2[5]  
 169  0177  0080     E  	mov rc,a
 169  0178  0700     E  	mov a,rb
 169  0179  0380     E  	addm a,rd
 169  017A  0700     E  	mov a,rc
 169  017B  1380     E  	adcm a,re
 169  017C  0700     E  	mov a,ra
 169  017D  0380     E  	addm a,rd
 169  017E  3C0A        	sz c
 169  017F  1480     E  	inc re
 169  0180  0700     R  	mov a,_Command_Parse_2[7]
 169  0181  0080     E  	mov rb,a
 169  0182  1F00     E  	clr rc
 169  0183  340A        	clr c
 169  0184  1A00     E  	rlca rb
 169  0185  0080     E  	mov rf,a
 169  0186  1A00     E  	rlca rc
 169  0187  0080     E  	mov rg,a
 169  0188  340A        	clr c
 169  0189  1A80     E  	rlc rf
 169  018A  1A80     E  	rlc rg
 169  018B  0700     E  	mov a,rf
 169  018C  0380     E  	addm a,rb
 169  018D  0700     E  	mov a,rg
 169  018E  1380     E  	adcm a,rc
 169  018F  340A        	clr c
 169  0190  1A80     E  	rlc rb
 169  0191  1A80     E  	rlc rc
 169  0192  0700     E  	mov a,rb
 169  0193  0300     E  	add a,rd
 169  0194  0080     R  	mov _led_duty[0],a
 169  0195  0700     E  	mov a,rc
 169  0196  1300     E  	adc a,re
 169  0197  0080     R  	mov _led_duty[1],a
 170  0198              #line 170 "D:\WORK\Project\Github\Segment_7_Key_TX\code\eTable.c"
 170  0198  0700     R  	mov a,_buff_rx[6]
 170  0199  0080     E  	mov ra,a
 170  019A  0700     E  	mov a,ra
 170  019B  2000     E  	call _Char2hex
 170  019C  0080     R  	mov _Command_Parse_2[5],a
 170  019D  0700     R  	mov a,_buff_rx[7]
 170  019E  0080     E  	mov ra,a
 170  019F  0700     E  	mov a,ra
 170  01A0  2000     E  	call _Char2hex
 170  01A1  0080     R  	mov _Command_Parse_2[6],a
 170  01A2  0700     R  	mov a,_buff_rx[8]
 170  01A3  0080     E  	mov ra,a
 170  01A4  0700     E  	mov a,ra
 170  01A5  2000     E  	call _Char2hex
 170  01A6  0080     R  	mov _Command_Parse_2[7],a
"File: eTable.c      Assembler  Version HGASM0202      Page 25

 170  01A7  0700     R  	mov a,_buff_rx[9]
 170  01A8  0080     E  	mov ra,a
 170  01A9  0700     E  	mov a,ra
 170  01AA  2000     E  	call _Char2hex
 170  01AB  0080     E  	mov ra,a
 170  01AC  0700     R  	mov a,_Command_Parse_2[5]
 170  01AD  0080     E  	mov _builtin_holtek_mulhi3_2[0],a
 170  01AE  1F00     E  	clr _builtin_holtek_mulhi3_2[1]
 170  01AF  0FE8        	mov a,232
 170  01B0  0080     E  	mov _builtin_holtek_mulhi3_2[2],a
 170  01B1  0F03        	mov a,3
 170  01B2  0080     E  	mov _builtin_holtek_mulhi3_2[3],a
 170  01B3  2000     E  	call _builtin_holtek_mulhi3
 170  01B4  0700     E  	mov a,_builtin_holtek_mulhi3_2[4]  
 170  01B5  0080     E  	mov rd,a  
 170  01B6  0700     E  	mov a,_builtin_holtek_mulhi3_2[5]  
 170  01B7  0080     E  	mov re,a
 170  01B8  0700     R  	mov a,_Command_Parse_2[6]
 170  01B9  0080     E  	mov _builtin_holtek_mulhi3_2[0],a
 170  01BA  1F00     E  	clr _builtin_holtek_mulhi3_2[1]
 170  01BB  0F64        	mov a,100
 170  01BC  0080     E  	mov _builtin_holtek_mulhi3_2[2],a
 170  01BD  0F00        	mov a,0
 170  01BE  0080     E  	mov _builtin_holtek_mulhi3_2[3],a
 170  01BF  2000     E  	call _builtin_holtek_mulhi3
 170  01C0  0700     E  	mov a,_builtin_holtek_mulhi3_2[4]  
 170  01C1  0080     E  	mov rb,a  
 170  01C2  0700     E  	mov a,_builtin_holtek_mulhi3_2[5]  
 170  01C3  0080     E  	mov rc,a
 170  01C4  0700     E  	mov a,rb
 170  01C5  0380     E  	addm a,rd
 170  01C6  0700     E  	mov a,rc
 170  01C7  1380     E  	adcm a,re
 170  01C8  0700     E  	mov a,ra
 170  01C9  0380     E  	addm a,rd
 170  01CA  3C0A        	sz c
 170  01CB  1480     E  	inc re
 170  01CC  0700     R  	mov a,_Command_Parse_2[7]
 170  01CD  0080     E  	mov rb,a
 170  01CE  1F00     E  	clr rc
 170  01CF  340A        	clr c
 170  01D0  1A00     E  	rlca rb
 170  01D1  0080     E  	mov rf,a
 170  01D2  1A00     E  	rlca rc
 170  01D3  0080     E  	mov rg,a
 170  01D4  340A        	clr c
 170  01D5  1A80     E  	rlc rf
 170  01D6  1A80     E  	rlc rg
 170  01D7  0700     E  	mov a,rf
 170  01D8  0380     E  	addm a,rb
 170  01D9  0700     E  	mov a,rg
 170  01DA  1380     E  	adcm a,rc
 170  01DB  340A        	clr c
 170  01DC  1A80     E  	rlc rb
 170  01DD  1A80     E  	rlc rc
 170  01DE  0700     E  	mov a,rb
 170  01DF  0300     E  	add a,rd
 170  01E0  0080     R  	mov _led_period[0],a
 170  01E1  0700     E  	mov a,rc
 170  01E2  1300     E  	adc a,re
"File: eTable.c      Assembler  Version HGASM0202      Page 26

 170  01E3  0080     R  	mov _led_period[1],a
 172  01E4              #line 172 "D:\WORK\Project\Github\Segment_7_Key_TX\code\eTable.c"
 172  01E4  1F00     R  	clr _Command_Parse_2[1]
 172  01E5              _L63:
 172  01E5  0F09        	mov a,9
 172  01E6  0200     R  	sub a,_Command_Parse_2[1]
 172  01E7  380A        	snz c
 172  01E8  2800     R  	jmp _L69
 174  01E9              #line 174 "D:\WORK\Project\Github\Segment_7_Key_TX\code\eTable.c"
 174  01E9  0F00     R  	mov a,low offset _buff_rx
 174  01EA  0300     R  	add a,_Command_Parse_2[1]
 174  01EB  0083        	mov mp,a
 174  01EC  0F00     R  	mov a,high offset _buff_rx
 174  01ED  1F01        	clr sbp
 174  01EE  1381        	adcm a,sbp
 174  01EF  2000     E  	call _Crom2Prom
 174  01F0  0080     E  	mov ra,a
 174  01F1  0F00     R  	mov a,low offset _buff_tx
 174  01F2  0300     R  	add a,_Command_Parse_2[1]
 174  01F3  0083        	mov mp,a
 174  01F4  0F00     R  	mov a,high offset _buff_tx
 174  01F5  1F01        	clr sbp
 174  01F6  1381        	adcm a,sbp
 174  01F7  0701        	mov a,sbp
 174  01F8  0084        	mov bp,a
 174  01F9  0700     E  	mov a,ra
 174  01FA  0082        	mov ir,a
 172  01FB              #line 172 "D:\WORK\Project\Github\Segment_7_Key_TX\code\eTable.c"
 172  01FB  1480     R  	inc _Command_Parse_2[1]
 172  01FC  2800     R  	jmp _L63
 172  01FD              _L69:
 176  01FD              #line 176 "D:\WORK\Project\Github\Segment_7_Key_TX\code\eTable.c"
 176  01FD  1F00     R  	clr _buff_tx[10]
 177  01FE              #line 177 "D:\WORK\Project\Github\Segment_7_Key_TX\code\eTable.c"
 177  01FE  0F0B        	mov a,11
 177  01FF  0080     R  	mov _RS232_SendBuf_2[2],a
 177  0200  2800     R  	jmp _L66
 177  0201              _L62:
 179  0201              #line 179 "D:\WORK\Project\Github\Segment_7_Key_TX\code\eTable.c"
 179  0201  0700     R  	mov a,_buff_rx[0]
 179  0202  0A42        	sub a,66
 179  0203  390A        	snz z
 179  0204  2800     R  	jmp _L65
 179  0205  0700     R  	mov a,_buff_rx[1]
 179  0206  0A30        	sub a,48
 179  0207  390A        	snz z
 179  0208  2800     R  	jmp _L65
 181  0209              #line 181 "D:\WORK\Project\Github\Segment_7_Key_TX\code\eTable.c"
 181  0209  0F00     R  	mov a,low offset _LC6
 181  020A  0080     E  	mov _my_strcpy_2[2],a
 181  020B  0F00     R  	mov a,high offset _LC6
 181  020C  0080     E  	mov _my_strcpy_2[3],a
 181  020D  0F00     R  	mov a,low offset _buff_tx
 181  020E  0080     E  	mov _my_strcpy_2[0],a
 181  020F  0F00     R  	mov a,high offset _buff_tx
 181  0210  0080     E  	mov _my_strcpy_2[1],a
 181  0211  2000     E  	call _my_strcpy
 181  0212  0080     E  	mov ra,a
 181  0213  0700     E  	mov a,ra
 181  0214  0080     R  	mov _RS232_SendBuf_2[2],a
"File: eTable.c      Assembler  Version HGASM0202      Page 27

 181  0215  0F00     R  	mov a,low offset _buff_tx
 181  0216  0080     R  	mov _RS232_SendBuf_2[0],a
 181  0217  0F00     R  	mov a,high offset _buff_tx
 181  0218  0080     R  	mov _RS232_SendBuf_2[1],a
 181  0219  2000     R  	call _RS232_SendBuf
 182  021A              #line 182 "D:\WORK\Project\Github\Segment_7_Key_TX\code\eTable.c"
 182  021A  0F00     R  	mov a,low offset _date_code
 182  021B  0080     E  	mov _my_strcpy_2[2],a
 182  021C  0F00     R  	mov a,high offset _date_code
 182  021D  0080     E  	mov _my_strcpy_2[3],a
 182  021E  2800     R  	jmp _L67
 182  021F              _L65:
 186  021F              #line 186 "D:\WORK\Project\Github\Segment_7_Key_TX\code\eTable.c"
 186  021F  0F00     R  	mov a,low offset _LC7
 186  0220  0080     E  	mov _my_strcpy_2[2],a
 186  0221  0F00     R  	mov a,high offset _LC7
 186  0222  0080     E  	mov _my_strcpy_2[3],a
 186  0223              _L67:
 186  0223  0F00     R  	mov a,low offset _buff_tx
 186  0224  0080     E  	mov _my_strcpy_2[0],a
 186  0225  0F00     R  	mov a,high offset _buff_tx
 186  0226  0080     E  	mov _my_strcpy_2[1],a
 186  0227  2000     E  	call _my_strcpy
 186  0228  0080     E  	mov ra,a
 186  0229  1400     E  	inca ra
 186  022A  0080     R  	mov _RS232_SendBuf_2[2],a
 186  022B              _L66:
 186  022B  0F00     R  	mov a,low offset _buff_tx
 186  022C  0080     R  	mov _RS232_SendBuf_2[0],a
 186  022D  0F00     R  	mov a,high offset _buff_tx
 186  022E  0080     R  	mov _RS232_SendBuf_2[1],a
 186  022F  2000     R  	call _RS232_SendBuf
 186  0230              _L49:
 186  0230  0003        	ret
 186  0231              _Command_Parse endp
 186  0231              #line 186 "D:\WORK\Project\Github\Segment_7_Key_TX\code\eTable.c"
 186  0231              #pragma debug scope 1 1
 186  0015              @crom	.section 'crom'
 186  0015              _LC8:
 186  0015              	db 047h,04dh,054h,020h,056h,045h,052h,020h,00h
 186  0019              public _main
 186  0019              #pragma debug scope 15 1
  70  0019              #line 70 "D:\WORK\Project\Github\Segment_7_Key_TX\code\eTable.c"
  70  0019              IFDEF WITH_DEFAULT_STARTUP
  70  0019              extern _main_initial0:near
  70  0019              extern _main_startup:near
  70  0019              ENDIF
  70  0019              
  70  0019              ROMBANK 0 @start
  70  0000              @start .section com_l 'code'
  70  0000              _main_startup1:
  70  0000              @start .section com_e 'code'
  70  0000  2800     R  	jmp _main
  70  0001              
  70  0000              _main .section 'code'
  70  0000              _main proc
  73  0000              #line 73 "D:\WORK\Project\Github\Segment_7_Key_TX\code\eTable.c"
  73  0000  2000     R  	call _Init_Vars
  74  0001              #line 74 "D:\WORK\Project\Github\Segment_7_Key_TX\code\eTable.c"
  74  0001  2000     R  	call _Init_System
"File: eTable.c      Assembler  Version HGASM0202      Page 28

  76  0002              #line 76 "D:\WORK\Project\Github\Segment_7_Key_TX\code\eTable.c"
  76  0002  0F00     R  	mov a,low offset _LC8
  76  0003  0080     E  	mov _my_strcpy_2[2],a
  76  0004  0F00     R  	mov a,high offset _LC8
  76  0005  0080     E  	mov _my_strcpy_2[3],a
  76  0006  0F00     R  	mov a,low offset _buff_tx
  76  0007  0080     E  	mov _my_strcpy_2[0],a
  76  0008  0F00     R  	mov a,high offset _buff_tx
  76  0009  0080     E  	mov _my_strcpy_2[1],a
  76  000A  2000     E  	call _my_strcpy
  76  000B  0080     E  	mov ra,a
  76  000C  0700     E  	mov a,ra
  76  000D  0080     R  	mov _RS232_SendBuf_2[2],a
  76  000E  0F00     R  	mov a,low offset _buff_tx
  76  000F  0080     R  	mov _RS232_SendBuf_2[0],a
  76  0010  0F00     R  	mov a,high offset _buff_tx
  76  0011  0080     R  	mov _RS232_SendBuf_2[1],a
  76  0012  2000     R  	call _RS232_SendBuf
  77  0013              #line 77 "D:\WORK\Project\Github\Segment_7_Key_TX\code\eTable.c"
  77  0013  0F00     R  	mov a,low offset _date_code
  77  0014  0080     E  	mov _my_strcpy_2[2],a
  77  0015  0F00     R  	mov a,high offset _date_code
  77  0016  0080     E  	mov _my_strcpy_2[3],a
  77  0017  0F00     R  	mov a,low offset _buff_tx
  77  0018  0080     E  	mov _my_strcpy_2[0],a
  77  0019  0F00     R  	mov a,high offset _buff_tx
  77  001A  0080     E  	mov _my_strcpy_2[1],a
  77  001B  2000     E  	call _my_strcpy
  77  001C  0080     E  	mov ra,a
  77  001D  1400     E  	inca ra
  77  001E  0080     R  	mov _RS232_SendBuf_2[2],a
  77  001F  0F00     R  	mov a,low offset _buff_tx
  77  0020  0080     R  	mov _RS232_SendBuf_2[0],a
  77  0021  0F00     R  	mov a,high offset _buff_tx
  77  0022  0080     R  	mov _RS232_SendBuf_2[1],a
  77  0023  2000     R  	call _RS232_SendBuf
  85  0024              #line 85 "D:\WORK\Project\Github\Segment_7_Key_TX\code\eTable.c"
  85  0024  300E        	set [14].0
  85  0025              _L73:
  89  0025              #line 89 "D:\WORK\Project\Github\Segment_7_Key_TX\code\eTable.c"
  89  0025  3800     R  	snz _rx_received
  89  0026  2800     R  	jmp _L71
  91  0027              #line 91 "D:\WORK\Project\Github\Segment_7_Key_TX\code\eTable.c"
  91  0027  3400     R  	clr _rx_received
  92  0028              #line 92 "D:\WORK\Project\Github\Segment_7_Key_TX\code\eTable.c"
  92  0028  2000     R  	call _Command_Parse
  92  0029              _L71:
  94  0029              #line 94 "D:\WORK\Project\Github\Segment_7_Key_TX\code\eTable.c"
  94  0029  3800     R  	snz _key_cont
  94  002A  2800     R  	jmp _L72
  95  002B              #line 95 "D:\WORK\Project\Github\Segment_7_Key_TX\code\eTable.c"
  95  002B  2000     R  	call _Key_Tx
  95  002C              _L72:
  96  002C              #line 96 "D:\WORK\Project\Github\Segment_7_Key_TX\code\eTable.c"
  96  002C              ;# 96 "D:\WORK\Project\Github\Segment_7_Key_TX\code\eTable.c" 1
  96  002C  0001        	clr wdt
  97  002D              #line 97 "D:\WORK\Project\Github\Segment_7_Key_TX\code\eTable.c"
  97  002D  2800     R  	jmp _L73
  97  002E  2800     R  	jmp $
  97  002F              _main endp
"File: eTable.c      Assembler  Version HGASM0202      Page 29

  97  002F              
  97  002F              @dummy endp
  97  002F              
  97  002F              #line 97 "D:\WORK\Project\Github\Segment_7_Key_TX\code\eTable.c"
  97  002F              #pragma debug scope 1 1
  97  002F              public _Int_Tb0
  97  002F              #pragma debug scope 16 1
 454  002F              #line 454 "D:\WORK\Project\Github\Segment_7_Key_TX\code\eTable.c"
 454  0000              @Int_Tb0_code .section at 28 'code'
 454  0000  0080     E  	mov r1,a
 454  0001  0704        	mov a,bp
 454  0002  0080     E  	mov r2,a
 454  0003  2800     R  	jmp _Int_Tb0
 454  0004              #pragma debug scope 1 1
 454  0004              @dummy28 endp
 454  0004              #pragma debug scope 17 1
 454  0000              _Int_Tb0 .section 'code'
 454  0000              _Int_Tb0 proc
 454  0000  070A        	mov a,status
 454  0001  0080     E  	mov r3,a
 454  0002  0703        	mov a,mp
 454  0003  0080     E  	mov r4,a
 454  0004  0701        	mov a,sbp
 454  0005  0080     E  	mov r5,a
 454  0006  0707        	mov a,tblp
 454  0007  0080     E  	mov r6,a
 454  0008  0709        	mov a,tbhp
 454  0009  0080     E  	mov r7,a
 456  000A              #line 456 "D:\WORK\Project\Github\Segment_7_Key_TX\code\eTable.c"
 456  000A              ;# 456 "D:\WORK\Project\Github\Segment_7_Key_TX\code\eTable.c" 1
 456  000A  0001        	clr wdt
 457  000B              #line 457 "D:\WORK\Project\Github\Segment_7_Key_TX\code\eTable.c"
 457  000B  2000     R  	call _Led_Scan
 458  000C              #line 458 "D:\WORK\Project\Github\Segment_7_Key_TX\code\eTable.c"
 458  000C  378F        	clr [15].7
 458  000D  0700     E  	mov a,r2
 458  000E  0084        	mov bp,a
 458  000F  0700     E  	mov a,r3
 458  0010  008A        	mov status,a
 458  0011  0700     E  	mov a,r4
 458  0012  0083        	mov mp,a
 458  0013  0700     E  	mov a,r5
 458  0014  0081        	mov sbp,a
 458  0015  0700     E  	mov a,r6
 458  0016  0087        	mov tblp,a
 458  0017  0700     E  	mov a,r7
 458  0018  0089        	mov tbhp,a
 458  0019  1D05        	tabrdc acc
 458  001A  0700     E  	mov a,r1
 458  001B  0004        	reti
 458  001C              _Int_Tb0 endp
 458  001C              
 458  001C              #line 458 "D:\WORK\Project\Github\Segment_7_Key_TX\code\eTable.c"
 458  001C              #pragma debug scope 1 1
 458  001C              public _Int_Tb1
 458  001C              #pragma debug scope 18 1
 462  001C              #line 462 "D:\WORK\Project\Github\Segment_7_Key_TX\code\eTable.c"
 462  0000              @Int_Tb1_code .section at 32 'code'
 462  0000  0080     E  	mov r1,a
 462  0001  0704        	mov a,bp
"File: eTable.c      Assembler  Version HGASM0202      Page 30

 462  0002  0080     E  	mov r2,a
 462  0003  2800     R  	jmp _Int_Tb1
 462  0004              #pragma debug scope 1 1
 462  0004              @dummy32 endp
 462  0004              #pragma debug scope 19 1
 462  0000              _Int_Tb1 .section 'code'
 462  0000              _Int_Tb1 proc
 462  0000  070A        	mov a,status
 462  0001  0080     E  	mov r3,a
 462  0002  0703        	mov a,mp
 462  0003  0080     E  	mov r4,a
 462  0004  0701        	mov a,sbp
 462  0005  0080     E  	mov r5,a
 462  0006  0707        	mov a,tblp
 462  0007  0080     E  	mov r6,a
 462  0008  0709        	mov a,tbhp
 462  0009  0080     E  	mov r7,a
 463  000A              #line 463 "D:\WORK\Project\Github\Segment_7_Key_TX\code\eTable.c"
 463  000A              ;# 463 "D:\WORK\Project\Github\Segment_7_Key_TX\code\eTable.c" 1
 463  000A  0001        	clr wdt
 466  000B              #line 466 "D:\WORK\Project\Github\Segment_7_Key_TX\code\eTable.c"
 466  000B  2000     R  	call _Key_Scan
 466  000C  0080     E  	mov ra,a
 466  000D  0700     E  	mov a,ra
 466  000E  0080     R  	mov _key_stat[0],a
 468  000F              #line 468 "D:\WORK\Project\Github\Segment_7_Key_TX\code\eTable.c"
 468  000F  3610        	clr [16].4
 468  0010  0700     E  	mov a,r2
 468  0011  0084        	mov bp,a
 468  0012  0700     E  	mov a,r3
 468  0013  008A        	mov status,a
 468  0014  0700     E  	mov a,r4
 468  0015  0083        	mov mp,a
 468  0016  0700     E  	mov a,r5
 468  0017  0081        	mov sbp,a
 468  0018  0700     E  	mov a,r6
 468  0019  0087        	mov tblp,a
 468  001A  0700     E  	mov a,r7
 468  001B  0089        	mov tbhp,a
 468  001C  1D05        	tabrdc acc
 468  001D  0700     E  	mov a,r1
 468  001E  0004        	reti
 468  001F              _Int_Tb1 endp
 468  001F              
 468  001F              #line 468 "D:\WORK\Project\Github\Segment_7_Key_TX\code\eTable.c"
 468  001F              #pragma debug scope 1 1
 468  001F              public _Int_Rx
 468  001F              #pragma debug scope 20 1
 472  001F              #line 472 "D:\WORK\Project\Github\Segment_7_Key_TX\code\eTable.c"
 472  0000              @Int_Rx_code .section at 44 'code'
 472  0000  0080     E  	mov r1,a
 472  0001  0704        	mov a,bp
 472  0002  0080     E  	mov r2,a
 472  0003  2800     R  	jmp _Int_Rx
 472  0004              #pragma debug scope 1 1
 472  0004              @dummy44 endp
 472  0004              #pragma debug scope 21 1
 472  0000              _Int_Rx .section 'code'
 472  0000              _Int_Rx proc
 472  0000  0002[       local _Int_Rx_2 db 2 dup(?)
"File: eTable.c      Assembler  Version HGASM0202      Page 31

            00
            ]
 472  0000  070A        	mov a,status
 472  0001  0080     E  	mov r3,a
 472  0002  0703        	mov a,mp
 472  0003  0080     E  	mov r4,a
 472  0004  0701        	mov a,sbp
 472  0005  0080     E  	mov r5,a
 472  0006              #pragma debug variable 8 21 _Int_Rx_2+1 "temp"
 472  0006              #pragma debug variable 8 21 _Int_Rx_2+0 "i"
 475  0006              #line 475 "D:\WORK\Project\Github\Segment_7_Key_TX\code\eTable.c"
 475  0006              ;# 475 "D:\WORK\Project\Github\Segment_7_Key_TX\code\eTable.c" 1
 475  0006  0001        	clr wdt
 477  0007              #line 477 "D:\WORK\Project\Github\Segment_7_Key_TX\code\eTable.c"
 477  0007  3944        	snz [68].2
 477  0008  2800     R  	jmp _L78
 479  0009              #line 479 "D:\WORK\Project\Github\Segment_7_Key_TX\code\eTable.c"
 479  0009  0748        	mov a,[72]
 479  000A  0080     R  	mov _Int_Rx_2[1],a
 480  000B              #line 480 "D:\WORK\Project\Github\Segment_7_Key_TX\code\eTable.c"
 480  000B  0700     R  	mov a,_Int_Rx_2[1]
 480  000C  0A40        	sub a,64
 480  000D  390A        	snz z
 480  000E  2800     R  	jmp _L79
 482  000F              #line 482 "D:\WORK\Project\Github\Segment_7_Key_TX\code\eTable.c"
 482  000F  1F00     R  	clr _ptr_buff[0]
 483  0010              #line 483 "D:\WORK\Project\Github\Segment_7_Key_TX\code\eTable.c"
 483  0010  3400     R  	clr _rx_received
 484  0011              #line 484 "D:\WORK\Project\Github\Segment_7_Key_TX\code\eTable.c"
 484  0011  1F00     R  	clr _Int_Rx_2[0]
 484  0012              _L80:
 484  0012  0F10        	mov a,16
 484  0013  0200     R  	sub a,_Int_Rx_2[0]
 484  0014  380A        	snz c
 484  0015  2800     R  	jmp _L78
 486  0016              #line 486 "D:\WORK\Project\Github\Segment_7_Key_TX\code\eTable.c"
 486  0016  0F00     R  	mov a,low offset _buff_rx
 486  0017  0300     R  	add a,_Int_Rx_2[0]
 486  0018  0083        	mov mp,a
 486  0019  0F00     R  	mov a,high offset _buff_rx
 486  001A  1F01        	clr sbp
 486  001B  1381        	adcm a,sbp
 486  001C  0701        	mov a,sbp
 486  001D  0084        	mov bp,a
 486  001E  0F00        	mov a,0
 486  001F  0082        	mov ir,a
 484  0020              #line 484 "D:\WORK\Project\Github\Segment_7_Key_TX\code\eTable.c"
 484  0020  1480     R  	inc _Int_Rx_2[0]
 484  0021  2800     R  	jmp _L80
 484  0022              _L79:
 489  0022              #line 489 "D:\WORK\Project\Github\Segment_7_Key_TX\code\eTable.c"
 489  0022  1080     R  	sz _Int_Rx_2[1]
 489  0023  2800     R  	jmp _LI7
 489  0024  2800     R  	jmp _L83
 489  0025              _LI7:
 489  0025  0700     R  	mov a,_Int_Rx_2[1]
 489  0026  0A23        	sub a,35
 489  0027  390A        	snz z
 489  0028  2800     R  	jmp _L84
 489  0029              _L83:
"File: eTable.c      Assembler  Version HGASM0202      Page 32

 491  0029              #line 491 "D:\WORK\Project\Github\Segment_7_Key_TX\code\eTable.c"
 491  0029  3000     R  	set _rx_received
 491  002A  2800     R  	jmp _L78
 491  002B              _L84:
 495  002B              #line 495 "D:\WORK\Project\Github\Segment_7_Key_TX\code\eTable.c"
 495  002B  0F10        	mov a,16
 495  002C  0200     R  	sub a,_ptr_buff[0]
 495  002D  380A        	snz c
 495  002E  2800     R  	jmp _L78
 497  002F              #line 497 "D:\WORK\Project\Github\Segment_7_Key_TX\code\eTable.c"
 497  002F  0F00     R  	mov a,low offset _buff_rx
 497  0030  0300     R  	add a,_ptr_buff[0]
 497  0031  0083        	mov mp,a
 497  0032  0F00     R  	mov a,high offset _buff_rx
 497  0033  1F01        	clr sbp
 497  0034  1381        	adcm a,sbp
 497  0035  0701        	mov a,sbp
 497  0036  0084        	mov bp,a
 497  0037  0700     R  	mov a,_Int_Rx_2[1]
 497  0038  0082        	mov ir,a
 498  0039              #line 498 "D:\WORK\Project\Github\Segment_7_Key_TX\code\eTable.c"
 498  0039  1480     R  	inc _ptr_buff[0]
 498  003A              _L78:
 503  003A              #line 503 "D:\WORK\Project\Github\Segment_7_Key_TX\code\eTable.c"
 503  003A  3790        	clr [16].7
 503  003B  0700     E  	mov a,r2
 503  003C  0084        	mov bp,a
 503  003D  0700     E  	mov a,r3
 503  003E  008A        	mov status,a
 503  003F  0700     E  	mov a,r4
 503  0040  0083        	mov mp,a
 503  0041  0700     E  	mov a,r5
 503  0042  0081        	mov sbp,a
 503  0043  0700     E  	mov a,r1
 503  0044  0004        	reti
 503  0045              _Int_Rx endp
 503  0045              
 503  0045              #line 503 "D:\WORK\Project\Github\Segment_7_Key_TX\code\eTable.c"
 503  0045              #pragma debug scope 1 1
 503  0000              @HCCINIT0	.section	'data'
 503  0000  0004[       ___led_tmr_1843	db 4 dup(0)
            00
            ]
 503  0004              #pragma debug variable 14 8 ___led_tmr_1843 "led_tmr"
 503  0004              
 503  0000              @HCCINIT .section 'data'
 503  0000              public _key_cont
 503  0000              @HCCINIT	.section 'data'
  48  0000              #line 48 "D:\WORK\Project\Github\Segment_7_Key_TX\code\eTable.c"
  48  0000              @BITDATASEC .section 'data'
  48  0000  00          _key_cont	dbit 0
  48  0001              #pragma debug variable 2 1 _key_cont "key_cont"
  48  0001              public _rx_received
  47  0001              #line 47 "D:\WORK\Project\Github\Segment_7_Key_TX\code\eTable.c"
  47  0001              @BITDATASEC .section 'data'
  47  0000              _rx_received	dbit 0
  47  0001              #pragma debug variable 2 1 _rx_received "rx_received"
  47  0001              public _led_duty
  46  0001              #line 46 "D:\WORK\Project\Github\Segment_7_Key_TX\code\eTable.c"
  46  0000              @HCCINIT .section 'data'
"File: eTable.c      Assembler  Version HGASM0202      Page 33

  46  0000              _led_duty label byte
  46  0000              #pragma debug variable 10 1 _led_duty "led_duty"
  46  0000              	dw 450
  46  0000              @ROMDATA_BASE .section inpage 'code'
  46  0000  01C2        	dc 450
  46  0002              @HCCINIT .section 'data'
  46  0002              public _led_period
  46  0002              #line 46 "D:\WORK\Project\Github\Segment_7_Key_TX\code\eTable.c"
  46  0002              @HCCINIT .section 'data'
  46  0002              _led_period label byte
  46  0002              #pragma debug variable 10 1 _led_period "led_period"
  46  0002              	dw 900
  46  0001              @ROMDATA_BASE .section inpage 'code'
  46  0001  0384        	dc 900
  46  0004              @HCCINIT .section 'data'
  46  0004              public _com
  45  0004              #line 45 "D:\WORK\Project\Github\Segment_7_Key_TX\code\eTable.c"
  45  0004              @HCCINIT .section 'data'
  45  0004              _com label byte
  45  0004              #pragma debug variable 8 1 _com "com"
  45  0004              	db 1
  45  0002              @ROMDATA_BASE .section inpage 'code'
  45  0002              	db 1
  45  0005              @HCCINIT .section 'data'
  45  0005              public _ptr_buff
  44  0005              #line 44 "D:\WORK\Project\Github\Segment_7_Key_TX\code\eTable.c"
  44  0005              @HCCINIT .section 'data'
  44  0005              _ptr_buff label byte
  44  0005              #pragma debug variable 8 1 _ptr_buff "ptr_buff"
  44  0005              	db 0
  44  0003              @ROMDATA_BASE .section inpage 'code'
  44  0003              	db 0
  44  0006              @HCCINIT .section 'data'
  44  0006              public _key_stat
  43  0006              #line 43 "D:\WORK\Project\Github\Segment_7_Key_TX\code\eTable.c"
  43  0006              @HCCINIT .section 'data'
  43  0006              _key_stat label byte
  43  0006              #pragma debug variable 8 1 _key_stat "key_stat"
  43  0006              	db 0
  43  0003              @ROMDATA_BASE .section inpage 'code'
  43  0003              	db 0
  43  0007              @HCCINIT .section 'data'
  43  0007              public _height_str
  41  0007              #line 41 "D:\WORK\Project\Github\Segment_7_Key_TX\code\eTable.c"
  41  0007              @HCCINIT .section 'data'
  41  0007              _height_str label byte
  41  0007              #pragma debug array 43 8 3 1
  41  0007              #pragma debug array 43 8 3 1
  41  0007              #pragma debug variable 43 1 _height_str "height_str"
  41  0007              	db 046h,046h,046h
  41  0004              @ROMDATA_BASE .section inpage 'code'
  41  0004              	db 046h
  41  0004              	db 046h
  41  0005              	db 046h
  41  000A              @HCCINIT	.section 'data'
  40  000A              #line 40 "D:\WORK\Project\Github\Segment_7_Key_TX\code\eTable.c"
  40  000A              public _buff_rx
  40  0004              @HCCINIT0 .section 'data'
  40  0004  0011[       _buff_rx	db 17 dup(0)
            00
"File: eTable.c      Assembler  Version HGASM0202      Page 34

            ]
  40  0015              #pragma debug array 44 8 17 1
  40  0015              #pragma debug array 44 8 17 1
  40  0015              #pragma debug variable 44 1 _buff_rx "buff_rx"
  40  0015              
  40  000A              @HCCINIT .section 'data'
  39  000A              #line 39 "D:\WORK\Project\Github\Segment_7_Key_TX\code\eTable.c"
  39  000A              public _buff_tx
  39  0015              @HCCINIT0 .section 'data'
  39  0015  0011[       _buff_tx	db 17 dup(0)
            00
            ]
  39  0026              #pragma debug variable 44 1 _buff_tx "buff_tx"
  39  0026              
  39  000A              @HCCINIT .section 'data'
  39  000A              public _date_code
  39  0019              @crom	.section 'crom'
  37  0019              #line 37 "D:\WORK\Project\Github\Segment_7_Key_TX\code\eTable.c"
  37  0019              @crom	.section	'crom'
  37  0019              _date_code:
  37  0019              #pragma debug array 45 7 9 1
  37  0019              #pragma debug array 45 7 9 1
  37  0019              #pragma debug variable 45 1 _date_code "date_code"
  37  0019              	db 031h,038h,031h,030h,032h,033h,030h,030h,00h
  37  001E              public _seg_7_table
  36  001E              #line 36 "D:\WORK\Project\Github\Segment_7_Key_TX\code\eTable.c"
  36  001E              @crom	.section	'crom'
  36  001E              _seg_7_table:
  36  001E              #pragma debug array 46 8 16 1
  36  001E              #pragma debug array 46 8 16 1
  36  001E              #pragma debug variable 46 1 _seg_7_table "seg_7_table"
  36  001E              	db 63
  36  001E              	db 6
  36  001F              	db 91
  36  001F              	db 79
  36  0020              	db 102
  36  0020              	db 109
  36  0021              	db 125
  36  0021              	db 7
  36  0022              	db 127
  36  0022              	db 111
  36  0023              	db 119
  36  0023              	db 124
  36  0024              	db 57
  36  0024              	db 94
  36  0025              	db 121
  36  0025              	db 113
  36  0026              #pragma debug variable 8 1 ___mp1 "__mp1" 1
  36  0026              #pragma debug struct_end
  36  0026              #pragma debug struct_end
  36  0026              #pragma debug union_end
  36  0026              #pragma debug union_end
  36  0026              #pragma debug variable 48 1 ___bp "__bp" 1
  36  0026              #pragma debug struct_end
  36  0026              #pragma debug struct_end
  36  0026              #pragma debug union_end
  36  0026              #pragma debug union_end
  36  0026              #pragma debug variable 50 1 ___intc0 "__intc0" 1
  36  0026              #pragma debug struct_end
  36  0026              #pragma debug struct_end
"File: eTable.c      Assembler  Version HGASM0202      Page 35

  36  0026              #pragma debug union_end
  36  0026              #pragma debug union_end
  36  0026              #pragma debug variable 52 1 ___intc1 "__intc1" 1
  36  0026              #pragma debug struct_end
  36  0026              #pragma debug struct_end
  36  0026              #pragma debug union_end
  36  0026              #pragma debug union_end
  36  0026              #pragma debug variable 54 1 ___intc2 "__intc2" 1
  36  0026              #pragma debug struct_end
  36  0026              #pragma debug struct_end
  36  0026              #pragma debug union_end
  36  0026              #pragma debug union_end
  36  0026              #pragma debug variable 56 1 ___pa "__pa" 1
  36  0026              #pragma debug struct_end
  36  0026              #pragma debug struct_end
  36  0026              #pragma debug union_end
  36  0026              #pragma debug union_end
  36  0026              #pragma debug variable 58 1 ___pac "__pac" 1
  36  0026              #pragma debug struct_end
  36  0026              #pragma debug struct_end
  36  0026              #pragma debug union_end
  36  0026              #pragma debug union_end
  36  0026              #pragma debug variable 60 1 ___papu "__papu" 1
  36  0026              #pragma debug struct_end
  36  0026              #pragma debug struct_end
  36  0026              #pragma debug union_end
  36  0026              #pragma debug union_end
  36  0026              #pragma debug variable 62 1 ___wdtc "__wdtc" 1
  36  0026              #pragma debug struct_end
  36  0026              #pragma debug struct_end
  36  0026              #pragma debug union_end
  36  0026              #pragma debug union_end
  36  0026              #pragma debug variable 64 1 ___tbc "__tbc" 1
  36  0026              #pragma debug variable 8 1 ___eea "__eea" 1
  36  0026              #pragma debug variable 8 1 ___eed "__eed" 1
  36  0026              #pragma debug struct_end
  36  0026              #pragma debug struct_end
  36  0026              #pragma debug union_end
  36  0026              #pragma debug union_end
  36  0026              #pragma debug variable 66 1 ___pb "__pb" 1
  36  0026              #pragma debug struct_end
  36  0026              #pragma debug struct_end
  36  0026              #pragma debug union_end
  36  0026              #pragma debug union_end
  36  0026              #pragma debug variable 68 1 ___pbc "__pbc" 1
  36  0026              #pragma debug struct_end
  36  0026              #pragma debug struct_end
  36  0026              #pragma debug union_end
  36  0026              #pragma debug union_end
  36  0026              #pragma debug variable 70 1 ___pbpu "__pbpu" 1
  36  0026              #pragma debug struct_end
  36  0026              #pragma debug struct_end
  36  0026              #pragma debug union_end
  36  0026              #pragma debug union_end
  36  0026              #pragma debug variable 72 1 ___cpc "__cpc" 1
  36  0026              #pragma debug struct_end
  36  0026              #pragma debug struct_end
  36  0026              #pragma debug union_end
  36  0026              #pragma debug union_end
  36  0026              #pragma debug variable 74 1 ___pc "__pc" 1
"File: eTable.c      Assembler  Version HGASM0202      Page 36

  36  0026              #pragma debug struct_end
  36  0026              #pragma debug struct_end
  36  0026              #pragma debug union_end
  36  0026              #pragma debug union_end
  36  0026              #pragma debug variable 76 1 ___pcc "__pcc" 1
  36  0026              #pragma debug struct_end
  36  0026              #pragma debug struct_end
  36  0026              #pragma debug union_end
  36  0026              #pragma debug union_end
  36  0026              #pragma debug variable 78 1 ___pcpu "__pcpu" 1
  36  0026              #pragma debug struct_end
  36  0026              #pragma debug struct_end
  36  0026              #pragma debug union_end
  36  0026              #pragma debug union_end
  36  0026              #pragma debug variable 80 1 ___acerl "__acerl" 1
  36  0026              #pragma debug struct_end
  36  0026              #pragma debug struct_end
  36  0026              #pragma debug union_end
  36  0026              #pragma debug union_end
  36  0026              #pragma debug variable 82 1 ___usr "__usr" 1
  36  0026              #pragma debug struct_end
  36  0026              #pragma debug struct_end
  36  0026              #pragma debug union_end
  36  0026              #pragma debug union_end
  36  0026              #pragma debug variable 84 1 ___ucr1 "__ucr1" 1
  36  0026              #pragma debug struct_end
  36  0026              #pragma debug struct_end
  36  0026              #pragma debug union_end
  36  0026              #pragma debug union_end
  36  0026              #pragma debug variable 86 1 ___ucr2 "__ucr2" 1
  36  0026              #pragma debug struct_end
  36  0026              #pragma debug struct_end
  36  0026              #pragma debug union_end
  36  0026              #pragma debug union_end
  36  0026              #pragma debug variable 88 1 ___brg "__brg" 1
  36  0026              #pragma debug struct_end
  36  0026              #pragma debug struct_end
  36  0026              #pragma debug union_end
  36  0026              #pragma debug union_end
  36  0026              #pragma debug variable 90 1 ___txr_rxr "__txr_rxr" 1
  36  0026              #pragma debug struct_end
  36  0026              #pragma debug struct_end
  36  0026              #pragma debug union_end
  36  0026              #pragma debug union_end
  36  0026              #pragma debug variable 92 1 ___sledc0 "__sledc0" 1
  36  0026              #pragma debug struct_end
  36  0026              #pragma debug struct_end
  36  0026              #pragma debug union_end
  36  0026              #pragma debug union_end
  36  0026              #pragma debug variable 94 1 ___sledc1 "__sledc1" 1
  36  0026              #pragma debug variable 8 1 ___iar1 "__iar1" 1
  36  0026              extern r1:byte
  36  0026              extern r2:byte
  36  0026              extern r3:byte
  36  0026              extern r4:byte
  36  0026              extern r5:byte
  36  0026              extern r6:byte
  36  0026              extern r7:byte
  70  0026              #line 70 "D:\WORK\Project\Github\Segment_7_Key_TX\code\eTable.c"
  70  0000              @code .section at 0 'code'
"File: eTable.c      Assembler  Version HGASM0202      Page 37

  70  0000  2800     R  	jmp _main_startup1
  70  0001              
  70  0001              extern _my_strcpy_2:byte
  70  0001              extern _my_strcpy:near
  70  0001              extern _Hex2char:near
  70  0001              extern _Char2hex:near
  70  0001              extern _builtin_holtek_mulhi3_2:byte
  70  0001              extern _builtin_holtek_mulhi3:near
  70  0001              
  70  0001              ; 
  70  0001              ; Generated by holtek-gcc v3.18, Mon Oct 29 18:03:28 2018
  70  0001              ; Rebuild 521
  70  0001              ; end of file


        0 Errors, 0