"File: my_fun.c      Assembler  Version HGASM0202      Page 1


   1  0000              ; Generated by holtek-gcc v3.18, Mon Oct 29 18:03:28 2018
   2  0000              ; 
   3  0000              ; Configuration:
   4  0000              ;       without long instruction
   5  0000              ;       Single ROM, Multi-RAM
   6  0000              ;       bits_per_rom_unit:16
   7  0000              ;       with mp1
   8  0000              ;       with tbhp, address(0x9)
   9  0000              ;          Use tabrd-const
  10  0000              ;       
  11  0000              ;       
  12  0000              ;       
  13  0000              ; use 'tabrdc' instead of 'tabrd'
  14  0000              ;       
  15  0000              
  16  0000              #pragma translator "holtek-gcc 4.6.4" "3.18" "build 20130711"
  17  0000              ; Rebuild 521
  18  0000              
  19  0000              ir equ [2]
  20  0000              mp equ [3]
  21  0000              sbp equ [1]
  22  0000              acc equ [5]
  23  0000              bp equ [4]
  24  0000              tblp equ [7]
  25  0000              tbhp equ [9]
  26  0000              status equ [10]
  27  0000              c equ [10].0
  28  0000              ac equ [10].1
  29  0000              z equ [10].2
  30  0000              ov equ [10].3
  31  0000              intc equ [11]
  32  0000              
  33  0000              extern ra:byte
  34  0000              extern rb:byte
  35  0000              extern rc:byte
  36  0000              extern rd:byte
  37  0000              extern re:byte
  38  0000              extern rf:byte
  39  0000              extern rg:byte
  40  0000              extern rh:byte
  41  0000              extern _Crom2Prom:near
  42  0000              extern _Crom2PromNext:near
  43  0000              
  44  0000              RAMBANK 0 @HCCINIT, @HCCINIT0
  45  0000              
  46  0000              RAMBANK 0 @BITDATASEC, @BITDATASEC1
  47  0000              @HCCINIT	.section 'data'
  48  0000              @HCCINIT0	.section 'data'
  49  0000              @BITDATASEC	 .section 'data'
  50  0000              @BITDATASEC1	 .section 'data'
  51  0000              
  52  0000              #pragma debug scope 1 1
  53  0000              public _my_strcpy
  54  0000              #pragma debug scope 2 1

   4  0000              #line 4 "D:\WORK\Project\Github\Segment_7_Key_TX\code\my_fun.c"
   4  0000              _my_strcpy .section 'code'
   4  0000              _my_strcpy proc
   4  0000              public _my_strcpy_2
"File: my_fun.c      Assembler  Version HGASM0202      Page 2

   4  0000  0004[           local _my_strcpy_2 db 4 dup(?)	; 4,0
            00
            ]
   4  0004              #pragma debug pointer 42 8 2
   4  0004              #pragma debug pointer 42 8 2
   4  0004              #pragma debug variable 42 2 _my_strcpy_2+0 "dest"
   4  0004              #pragma debug pointer 43 7 2
   4  0004              #pragma debug pointer 43 7 2
   4  0004              #pragma debug variable 43 2 _my_strcpy_2+2 "source"
   5  0004              #line 5 "D:\WORK\Project\Github\Segment_7_Key_TX\code\my_fun.c"
   5  0000  1F00     E  	clr rb
   5  0001  1F00     E  	clr rc
   5  0002              _L2:
   6  0002              #line 6 "D:\WORK\Project\Github\Segment_7_Key_TX\code\my_fun.c"
   6  0002  0700     E  	mov a,rb
   6  0003  0300     R  	add a,_my_strcpy_2[2]
   6  0004  0083        	mov mp,a
   6  0005  0700     E  	mov a,rc
   6  0006  1300     R  	adc a,_my_strcpy_2[3]
   6  0007  0081        	mov sbp,a
   6  0008  2000     E  	call _Crom2Prom
   6  0009  0080     E  	mov ra,a
   8  000A              #line 8 "D:\WORK\Project\Github\Segment_7_Key_TX\code\my_fun.c"
   8  000A  0700     E  	mov a,rb
   8  000B  0300     R  	add a,_my_strcpy_2[0]
   8  000C  0083        	mov mp,a
   8  000D  0700     E  	mov a,rc
   8  000E  1300     R  	adc a,_my_strcpy_2[1]
   8  000F  0081        	mov sbp,a
   6  0010              #line 6 "D:\WORK\Project\Github\Segment_7_Key_TX\code\my_fun.c"
   6  0010  1080     E  	sz ra
   6  0011  2800     R  	jmp _LI1
   6  0012  2800     R  	jmp _L5
   6  0013              _LI1:
   8  0013              #line 8 "D:\WORK\Project\Github\Segment_7_Key_TX\code\my_fun.c"
   8  0013  0701        	mov a,sbp
   8  0014  0084        	mov bp,a
   8  0015  0700     E  	mov a,ra
   8  0016  0082        	mov ir,a
   9  0017              #line 9 "D:\WORK\Project\Github\Segment_7_Key_TX\code\my_fun.c"
   9  0017  1480     E  	inc rb
   9  0018  3D0A        	sz z
   9  0019  1480     E  	inc rc
   9  001A  2800     R  	jmp _L2
   9  001B              _L5:
  11  001B              #line 11 "D:\WORK\Project\Github\Segment_7_Key_TX\code\my_fun.c"
  11  001B  0701        	mov a,sbp
  11  001C  0084        	mov bp,a
  11  001D  0F00        	mov a,0
  11  001E  0082        	mov ir,a
  13  001F              #line 13 "D:\WORK\Project\Github\Segment_7_Key_TX\code\my_fun.c"
  13  001F  0700     E  	mov a,rb
  13  0020  0003        	ret
  13  0021              _my_strcpy endp
  13  0021              #line 13 "D:\WORK\Project\Github\Segment_7_Key_TX\code\my_fun.c"
  13  0021              #pragma debug scope 1 1
  13  0021              public _Hex2char
  13  0021              #pragma debug scope 3 1
  16  0021              #line 16 "D:\WORK\Project\Github\Segment_7_Key_TX\code\my_fun.c"
  16  0000              _Hex2char .section 'code'
"File: my_fun.c      Assembler  Version HGASM0202      Page 3

  16  0000              _Hex2char proc
  16  0000  00              local _Hex2char_2 db 1 dup(?)	; 0,1
  16  0000  0080     E  	mov ra,a
  16  0001  0080     R  	mov _Hex2char_2[0],a
  16  0002              #pragma debug variable 8 3 _Hex2char_2+0 "num"
  17  0002              #line 17 "D:\WORK\Project\Github\Segment_7_Key_TX\code\my_fun.c"
  17  0002  0F09        	mov a,9
  17  0003  0200     E  	sub a,ra
  17  0004  380A        	snz c
  17  0005  2800     R  	jmp _L7
  19  0006              #line 19 "D:\WORK\Project\Github\Segment_7_Key_TX\code\my_fun.c"
  19  0006  0F30        	mov a,48
  19  0007  0380     E  	addm a,ra
  19  0008  2800     R  	jmp _L8
  19  0009              _L7:
  23  0009              #line 23 "D:\WORK\Project\Github\Segment_7_Key_TX\code\my_fun.c"
  23  0009  0700     R  	mov a,_Hex2char_2[0]
  23  000A  0B37        	add a,55
  23  000B  0080     E  	mov ra,a
  23  000C              _L8:
  25  000C              #line 25 "D:\WORK\Project\Github\Segment_7_Key_TX\code\my_fun.c"
  25  000C  0700     E  	mov a,ra
  25  000D  0003        	ret
  25  000E              _Hex2char endp
  25  000E              #line 25 "D:\WORK\Project\Github\Segment_7_Key_TX\code\my_fun.c"
  25  000E              #pragma debug scope 1 1
  25  000E              public _Char2hex
  25  000E              #pragma debug scope 4 1
  28  000E              #line 28 "D:\WORK\Project\Github\Segment_7_Key_TX\code\my_fun.c"
  28  0000              _Char2hex .section 'code'
  28  0000              _Char2hex proc
  28  0000  00              local _Char2hex_2 db 1 dup(?)	; 0,1
  28  0000  0080     E  	mov ra,a
  28  0001  0080     R  	mov _Char2hex_2[0],a
  28  0002              #pragma debug variable 8 4 _Char2hex_2+0 "num"
  29  0002              #line 29 "D:\WORK\Project\Github\Segment_7_Key_TX\code\my_fun.c"
  29  0002  0FD0        	mov a,208
  29  0003  0380     E  	addm a,ra
  29  0004  0F09        	mov a,9
  29  0005  0200     E  	sub a,ra
  29  0006  3C0A        	sz c
  29  0007  2800     R  	jmp _L11
  33  0008              #line 33 "D:\WORK\Project\Github\Segment_7_Key_TX\code\my_fun.c"
  33  0008  0700     R  	mov a,_Char2hex_2[0]
  33  0009  0BBF        	add a,191
  33  000A  0080     E  	mov ra,a
  33  000B  0F05        	mov a,5
  33  000C  0200     E  	sub a,ra
  33  000D  380A        	snz c
  33  000E  2800     R  	jmp _L12
  35  000F              #line 35 "D:\WORK\Project\Github\Segment_7_Key_TX\code\my_fun.c"
  35  000F  0700     R  	mov a,_Char2hex_2[0]
  35  0010  0BC9        	add a,201
  35  0011  0080     E  	mov ra,a
  35  0012  2800     R  	jmp _L11
  35  0013              _L12:
  38  0013              #line 38 "D:\WORK\Project\Github\Segment_7_Key_TX\code\my_fun.c"
  38  0013  1F00     E  	clr ra
  38  0014              _L11:
  39  0014              #line 39 "D:\WORK\Project\Github\Segment_7_Key_TX\code\my_fun.c"
"File: my_fun.c      Assembler  Version HGASM0202      Page 4

  39  0014  0700     E  	mov a,ra
  39  0015  0003        	ret
  39  0016              _Char2hex endp
  39  0016              #line 39 "D:\WORK\Project\Github\Segment_7_Key_TX\code\my_fun.c"
  39  0016              #pragma debug scope 1 1
  39  0000              @crom	.section 'crom'
  39  0000              _LC0:
  39  0000              	db 030h,031h,032h,033h,034h,035h,036h,037h,038h,039h
  39  0005              	db 00h
  39  0006              public _utoa
  39  0006              #pragma debug scope 5 1
  43  0006              #line 43 "D:\WORK\Project\Github\Segment_7_Key_TX\code\my_fun.c"
  43  0000              _utoa .section 'code'
  43  0000              _utoa proc
  43  0000              public _utoa_2
  43  0000  0006[           local _utoa_2 db 6 dup(?)	; 4,2
            00
            ]
  43  0006              #pragma debug variable 10 5 _utoa_2+0 "n"
  43  0006              #pragma debug pointer 44 8 5
  43  0006              #pragma debug pointer 44 8 5
  43  0006              #pragma debug variable 44 5 _utoa_2+2 "str"
  43  0006              #pragma debug variable 10 5 _utoa_2+4 "temp"
  47  0006              #line 47 "D:\WORK\Project\Github\Segment_7_Key_TX\code\my_fun.c"
  47  0000  0700     R  	mov a,_utoa_2[0]
  47  0001  0080     R  	mov _utoa_2[4],a
  47  0002  0700     R  	mov a,_utoa_2[1]
  47  0003  0080     R  	mov _utoa_2[5],a
  48  0004              #line 48 "D:\WORK\Project\Github\Segment_7_Key_TX\code\my_fun.c"
  48  0004  0700     R  	mov a,_utoa_2[0]
  48  0005  0500     R  	or a,_utoa_2[1]
  48  0006  390A        	snz z
  48  0007  2800     R  	jmp _L14
  51  0008              #line 51 "D:\WORK\Project\Github\Segment_7_Key_TX\code\my_fun.c"
  51  0008  0700     R  	mov a,_utoa_2[2]
  51  0009  0083        	mov mp,a
  51  000A  0700     R  	mov a,_utoa_2[3]
  51  000B  0081        	mov sbp,a
  51  000C  0701        	mov a,sbp
  51  000D  0084        	mov bp,a
  51  000E  0F30        	mov a,48
  51  000F  0082        	mov ir,a
  51  0010  0F01        	mov a,1
  51  0011  0300     R  	add a,_utoa_2[2]
  51  0012  0083        	mov mp,a
  51  0013  0F00        	mov a,0
  51  0014  1300     R  	adc a,_utoa_2[3]
  51  0015  0081        	mov sbp,a
  51  0016  0701        	mov a,sbp
  51  0017  0084        	mov bp,a
  51  0018  0F30        	mov a,48
  51  0019  0082        	mov ir,a
  51  001A  0F02        	mov a,2
  51  001B  0300     R  	add a,_utoa_2[2]
  51  001C  0083        	mov mp,a
  51  001D  0F00        	mov a,0
  51  001E  1300     R  	adc a,_utoa_2[3]
  51  001F  0081        	mov sbp,a
  51  0020  0701        	mov a,sbp
  51  0021  0084        	mov bp,a
"File: my_fun.c      Assembler  Version HGASM0202      Page 5

  51  0022  0F30        	mov a,48
  51  0023  0082        	mov ir,a
  51  0024  2800     R  	jmp _L13
  51  0025              _L14:
  48  0025              #line 48 "D:\WORK\Project\Github\Segment_7_Key_TX\code\my_fun.c"
  48  0025  0F03        	mov a,3
  48  0026  0080     E  	mov ra,a
  48  0027  1F00     E  	clr rd
  48  0028              _L16:
  57  0028              #line 57 "D:\WORK\Project\Github\Segment_7_Key_TX\code\my_fun.c"
  57  0028  1F00     E  	clr _builtin_holtek_udivmodhi4_2[6]
  57  0029  0700     R  	mov a,_utoa_2[4]  
  57  002A  0080     E  	mov _builtin_holtek_udivmodhi4_2[0],a  
  57  002B  0700     R  	mov a,_utoa_2[5]  
  57  002C  0080     E  	mov _builtin_holtek_udivmodhi4_2[1],a
  57  002D  0F0A        	mov a,10  
  57  002E  0080     E  	mov _builtin_holtek_udivmodhi4_2[2],a  
  57  002F  1F00     E  	clr _builtin_holtek_udivmodhi4_2[3]
  57  0030  2000     E  	call _builtin_holtek_udivmodhi4
  57  0031  0700     E  	mov a,_builtin_holtek_udivmodhi4_2[4]  
  57  0032  0080     E  	mov rb,a  
  57  0033  0700     E  	mov a,_builtin_holtek_udivmodhi4_2[5]  
  57  0034  0080     E  	mov rc,a
  57  0035  0F00     R  	mov a,low offset _LC0
  57  0036  0300     E  	add a,rb
  57  0037  0083        	mov mp,a
  57  0038  0F00     R  	mov a,high offset _LC0
  57  0039  1300     E  	adc a,rc
  57  003A  0081        	mov sbp,a
  57  003B  2000     E  	call _Crom2Prom
  57  003C  0080     E  	mov rb,a
  57  003D  0700     E  	mov a,rd
  57  003E  0300     R  	add a,_utoa_2[2]
  57  003F  0083        	mov mp,a
  57  0040  1F05        	clr acc
  57  0041  1300     R  	adc a,_utoa_2[3]
  57  0042  0081        	mov sbp,a
  57  0043  0701        	mov a,sbp
  57  0044  0084        	mov bp,a
  57  0045  0700     E  	mov a,rb
  57  0046  0082        	mov ir,a
  58  0047              #line 58 "D:\WORK\Project\Github\Segment_7_Key_TX\code\my_fun.c"
  58  0047  1F00     E  	clr _builtin_holtek_udivmodhi4_2[6]
  58  0048  0700     R  	mov a,_utoa_2[4]  
  58  0049  0080     E  	mov _builtin_holtek_udivmodhi4_2[0],a  
  58  004A  0700     R  	mov a,_utoa_2[5]  
  58  004B  0080     E  	mov _builtin_holtek_udivmodhi4_2[1],a
  58  004C  0F0A        	mov a,10  
  58  004D  0080     E  	mov _builtin_holtek_udivmodhi4_2[2],a  
  58  004E  1F00     E  	clr _builtin_holtek_udivmodhi4_2[3]
  58  004F  2000     E  	call _builtin_holtek_udivmodhi4
  58  0050  0700     E  	mov a,_builtin_holtek_udivmodhi4_2[0]  
  58  0051  0080     R  	mov _utoa_2[4],a  
  58  0052  0700     E  	mov a,_builtin_holtek_udivmodhi4_2[1]  
  58  0053  0080     R  	mov _utoa_2[5],a
  55  0054              #line 55 "D:\WORK\Project\Github\Segment_7_Key_TX\code\my_fun.c"
  55  0054  1480     E  	inc rd
  55  0055  1780     E  	sdz ra
  55  0056  2800     R  	jmp _L16
  55  0057              _L13:
"File: my_fun.c      Assembler  Version HGASM0202      Page 6

  55  0057  0003        	ret
  55  0058              _utoa endp
  55  0058              #line 55 "D:\WORK\Project\Github\Segment_7_Key_TX\code\my_fun.c"
  55  0058              #pragma debug scope 1 1
  55  0058              public _atou
  55  0058              #pragma debug scope 6 1
  64  0058              #line 64 "D:\WORK\Project\Github\Segment_7_Key_TX\code\my_fun.c"
  64  0000              _atou .section 'code'
  64  0000              _atou proc
  64  0000              public _atou_2
  64  0000  0004[           local _atou_2 db 4 dup(?)	; 2,2
            00
            ]
  64  0004              #pragma debug pointer 45 8 6
  64  0004              #pragma debug pointer 45 8 6
  64  0004              #pragma debug variable 45 6 _atou_2+0 "str"
  65  0004              #line 65 "D:\WORK\Project\Github\Segment_7_Key_TX\code\my_fun.c"
  65  0000  0700     R  	mov a,_atou_2[0]
  65  0001  0083        	mov mp,a
  65  0002  0700     R  	mov a,_atou_2[1]
  65  0003  0081        	mov sbp,a
  65  0004  2000     E  	call _Crom2Prom
  65  0005  2000     R  	call _Char2hex
  65  0006  0080     R  	mov _atou_2[2],a
  65  0007  0F02        	mov a,2
  65  0008  0300     R  	add a,_atou_2[0]
  65  0009  0083        	mov mp,a
  65  000A  0F00        	mov a,0
  65  000B  1300     R  	adc a,_atou_2[1]
  65  000C  0081        	mov sbp,a
  65  000D  2000     E  	call _Crom2Prom
  65  000E  2000     R  	call _Char2hex
  65  000F  0080     R  	mov _atou_2[3],a
  65  0010  0F01        	mov a,1
  65  0011  0300     R  	add a,_atou_2[0]
  65  0012  0083        	mov mp,a
  65  0013  0F00        	mov a,0
  65  0014  1300     R  	adc a,_atou_2[1]
  65  0015  0081        	mov sbp,a
  65  0016  2000     E  	call _Crom2Prom
  65  0017  2000     R  	call _Char2hex
  65  0018  0080     E  	mov rd,a
  65  0019  0700     R  	mov a,_atou_2[3]
  65  001A  0080     E  	mov _builtin_holtek_mulhi3_2[0],a
  65  001B  1F00     E  	clr _builtin_holtek_mulhi3_2[1]
  65  001C  0F64        	mov a,100
  65  001D  0080     E  	mov _builtin_holtek_mulhi3_2[2],a
  65  001E  0F00        	mov a,0
  65  001F  0080     E  	mov _builtin_holtek_mulhi3_2[3],a
  65  0020  2000     E  	call _builtin_holtek_mulhi3
  65  0021  0700     E  	mov a,_builtin_holtek_mulhi3_2[4]  
  65  0022  0080     E  	mov rf,a  
  65  0023  0700     E  	mov a,_builtin_holtek_mulhi3_2[5]  
  65  0024  0080     E  	mov rg,a
  65  0025  1F00     E  	clr re
  65  0026  340A        	clr c
  65  0027  1A00     E  	rlca rd
  65  0028  0080     E  	mov rb,a
  65  0029  1A00     E  	rlca re
  65  002A  0080     E  	mov rc,a
"File: my_fun.c      Assembler  Version HGASM0202      Page 7

  65  002B  340A        	clr c
  65  002C  1A80     E  	rlc rb
  65  002D  1A80     E  	rlc rc
  65  002E  0700     E  	mov a,rd
  65  002F  0380     E  	addm a,rb
  65  0030  0700     E  	mov a,re
  65  0031  1380     E  	adcm a,rc
  65  0032  340A        	clr c
  65  0033  1A80     E  	rlc rb
  65  0034  1A80     E  	rlc rc
  65  0035  0700     E  	mov a,rf
  65  0036  0380     E  	addm a,rb
  65  0037  0700     E  	mov a,rg
  65  0038  1380     E  	adcm a,rc
  66  0039              #line 66 "D:\WORK\Project\Github\Segment_7_Key_TX\code\my_fun.c"
  66  0039  0700     R  	mov a,_atou_2[2]
  66  003A  0300     E  	add a,rb
  66  003B  0080     E  	mov rd,a
  66  003C  1F05        	clr acc
  66  003D  1300     E  	adc a,rc
  66  003E  0080     E  	mov re,a
  66  003F  0700     E  	mov a,rd
  66  0040  0080     E  	mov ra,a
  66  0041  0700     E  	mov a,re
  66  0042  0080     E  	mov rb,a
  66  0043  0003        	ret
  66  0044              _atou endp
  66  0044              #line 66 "D:\WORK\Project\Github\Segment_7_Key_TX\code\my_fun.c"
  66  0044              #pragma debug scope 1 1
  66  0044              extern _builtin_holtek_udivmodhi4_2:byte
  66  0044              extern _builtin_holtek_udivmodhi4:near
  66  0044              extern _builtin_holtek_mulhi3_2:byte
  66  0044              extern _builtin_holtek_mulhi3:near
  66  0044              
  66  0044              ; 
  66  0044              ; Generated by holtek-gcc v3.18, Mon Oct 29 18:03:28 2018
  66  0044              ; Rebuild 521
  66  0044              ; end of file


        0 Errors, 0