"File: HT66F319_I2C_UART.c  Assembler  Version HGASM0202      Page 1


   1  0000              ; Generated by holtek-gcc v3.18, Tue Dec 11 11:16:14 2018
   2  0000              ; 
   3  0000              ; Configuration:
   4  0000              ;       without long instruction
   5  0000              ;       Single ROM, Multi-RAM
   6  0000              ;       bits_per_rom_unit:16
   7  0000              ;       with mp1
   8  0000              ;       with tbhp, address(0x9)
   9  0000              ;          Use tabrd-const
  10  0000              ;       
  11  0000              ;       
  12  0000              ;       
  13  0000              ; use 'tabrdc' instead of 'tabrd'
  14  0000              ;       
  15  0000              
  16  0000              #pragma translator "holtek-gcc 4.6.4" "3.18" "build 20130711"
  17  0000              ; Rebuild 521
  18  0000              
  19  0000              ir equ [2]
  20  0000              mp equ [3]
  21  0000              sbp equ [1]
  22  0000              acc equ [5]
  23  0000              bp equ [4]
  24  0000              tblp equ [7]
  25  0000              tbhp equ [9]
  26  0000              status equ [10]
  27  0000              c equ [10].0
  28  0000              ac equ [10].1
  29  0000              z equ [10].2
  30  0000              ov equ [10].3
  31  0000              intc equ [11]
  32  0000              
  33  0000              extern ra:byte
  34  0000              extern rb:byte
  35  0000              extern rc:byte
  36  0000              extern rd:byte
  37  0000              extern re:byte
  38  0000              extern rf:byte
  39  0000              extern rg:byte
  40  0000              extern rh:byte
  41  0000              extern _Crom2Prom:near
  42  0000              extern _Crom2PromNext:near
  43  0000              
  44  0000              RAMBANK 0 @HCCINIT, @HCCINIT0
  45  0000              
  46  0000              RAMBANK 0 @BITDATASEC, @BITDATASEC1
  47  0000              @HCCINIT	.section 'data'
  48  0000              @HCCINIT0	.section 'data'
  49  0000              @BITDATASEC	 .section 'data'
  50  0000              @BITDATASEC1	 .section 'data'
  51  0000              
  52  0000              #pragma debug scope 1 1
  53  0000              	extern __DELAY3:near
  54  0000              	extern __DELAYX3:near
  55  0000              	extern __DELAYX6:near
  56  0000              	extern __DELAYY5:near
  57  0000              	extern __DELAYY3:near
  58  0000              	extern _builtin_holtek_delay_2:byte
  59  0000              public _Init_Vars
"File: HT66F319_I2C_UART.ASM  Assembler  Version HGASM0202      Page 2

  60  0000              #pragma debug scope 2 1

 362  0000              #line 362 "D:\WORK\Project\Github\etable\code\I2C\HT66F319_I2C_UART.c"
 362  0000              _Init_Vars .section 'code'
 362  0000              _Init_Vars proc
 365  0000              #line 365 "D:\WORK\Project\Github\etable\code\I2C\HT66F319_I2C_UART.c"
 365  0000  1F00     R  	clr _ptr_i2c_rx_buff[0]
 366  0001              #line 366 "D:\WORK\Project\Github\etable\code\I2C\HT66F319_I2C_UART.c"
 366  0001  1F00     R  	clr _ptr_i2c_tx_buff[0]
 366  0002  0F10        	mov a,16
 366  0003  0080     E  	mov ra,a
 368  0004              #line 368 "D:\WORK\Project\Github\etable\code\I2C\HT66F319_I2C_UART.c"
 368  0004  1F00     E  	clr rd
 368  0005              _L3:
 370  0005              #line 370 "D:\WORK\Project\Github\etable\code\I2C\HT66F319_I2C_UART.c"
 370  0005  0700     E  	mov a,rd
 370  0006  0080     E  	mov rb,a
 370  0007  1F00     E  	clr rc
 370  0008  0F00     R  	mov a,low offset _buff_i2c_rx
 370  0009  0300     E  	add a,rb
 370  000A  0083        	mov mp,a
 370  000B  0F00     R  	mov a,high offset _buff_i2c_rx
 370  000C  1300     E  	adc a,rc
 370  000D  0081        	mov sbp,a
 370  000E  0701        	mov a,sbp
 370  000F  0084        	mov bp,a
 370  0010  0F00        	mov a,0
 370  0011  0082        	mov ir,a
 371  0012              #line 371 "D:\WORK\Project\Github\etable\code\I2C\HT66F319_I2C_UART.c"
 371  0012  0F00     R  	mov a,low offset _buff_i2c_tx
 371  0013  0300     E  	add a,rb
 371  0014  0083        	mov mp,a
 371  0015  0F00     R  	mov a,high offset _buff_i2c_tx
 371  0016  1300     E  	adc a,rc
 371  0017  0081        	mov sbp,a
 371  0018  0701        	mov a,sbp
 371  0019  0084        	mov bp,a
 371  001A  0F00        	mov a,0
 371  001B  0082        	mov ir,a
 368  001C              #line 368 "D:\WORK\Project\Github\etable\code\I2C\HT66F319_I2C_UART.c"
 368  001C  1480     E  	inc rd
 368  001D  1780     E  	sdz ra
 368  001E  2800     R  	jmp _L3
 368  001F  0003        	ret
 368  0020              _Init_Vars endp
 368  0020              #line 368 "D:\WORK\Project\Github\etable\code\I2C\HT66F319_I2C_UART.c"
 368  0020              #pragma debug scope 1 1
 368  0020              ___sledc0 equ [81]
 368  0020              ___sledc1 equ [82]
 368  0020              public _Led_Current_Set
 368  0020              #pragma debug scope 3 1
 377  0020              #line 377 "D:\WORK\Project\Github\etable\code\I2C\HT66F319_I2C_UART.c"
 377  0000              _Led_Current_Set .section 'code'
 377  0000              _Led_Current_Set proc
 377  0000  00              local _Led_Current_Set_2 db 1 dup(?)	; 0,1
 377  0000  0080     E  	mov ra,a
 377  0001  0080     R  	mov _Led_Current_Set_2[0],a
 377  0002              #pragma debug variable 8 3 _Led_Current_Set_2+0 "level"
 378  0002              #line 378 "D:\WORK\Project\Github\etable\code\I2C\HT66F319_I2C_UART.c"
 378  0002  1700     E  	sdza ra
"File: HT66F319_I2C_UART.c  Assembler  Version HGASM0202      Page 3

 378  0003  2800     R  	jmp _L6
 380  0004              #line 380 "D:\WORK\Project\Github\etable\code\I2C\HT66F319_I2C_UART.c"
 380  0004  0F55        	mov a,85
 380  0005  00D1        	mov [81],a
 381  0006              #line 381 "D:\WORK\Project\Github\etable\code\I2C\HT66F319_I2C_UART.c"
 381  0006  0F55        	mov a,85
 381  0007  00D2        	mov [82],a
 381  0008  2800     R  	jmp _L5
 381  0009              _L6:
 383  0009              #line 383 "D:\WORK\Project\Github\etable\code\I2C\HT66F319_I2C_UART.c"
 383  0009  0700     R  	mov a,_Led_Current_Set_2[0]
 383  000A  0A02        	sub a,2
 383  000B  390A        	snz z
 383  000C  2800     R  	jmp _L8
 385  000D              #line 385 "D:\WORK\Project\Github\etable\code\I2C\HT66F319_I2C_UART.c"
 385  000D  0FAA        	mov a,170
 385  000E  00D1        	mov [81],a
 386  000F              #line 386 "D:\WORK\Project\Github\etable\code\I2C\HT66F319_I2C_UART.c"
 386  000F  0FAA        	mov a,170
 386  0010  00D2        	mov [82],a
 386  0011  2800     R  	jmp _L5
 386  0012              _L8:
 388  0012              #line 388 "D:\WORK\Project\Github\etable\code\I2C\HT66F319_I2C_UART.c"
 388  0012  0700     R  	mov a,_Led_Current_Set_2[0]
 388  0013  0A03        	sub a,3
 388  0014  390A        	snz z
 388  0015  2800     R  	jmp _L9
 390  0016              #line 390 "D:\WORK\Project\Github\etable\code\I2C\HT66F319_I2C_UART.c"
 390  0016  1FD1        	set [81]
 391  0017              #line 391 "D:\WORK\Project\Github\etable\code\I2C\HT66F319_I2C_UART.c"
 391  0017  1FD2        	set [82]
 391  0018  2800     R  	jmp _L5
 391  0019              _L9:
 395  0019              #line 395 "D:\WORK\Project\Github\etable\code\I2C\HT66F319_I2C_UART.c"
 395  0019  1F51        	clr [81]
 396  001A              #line 396 "D:\WORK\Project\Github\etable\code\I2C\HT66F319_I2C_UART.c"
 396  001A  1F52        	clr [82]
 396  001B              _L5:
 396  001B  0003        	ret
 396  001C              _Led_Current_Set endp
 396  001C              #line 396 "D:\WORK\Project\Github\etable\code\I2C\HT66F319_I2C_UART.c"
 396  001C              #pragma debug scope 1 1
 396  001C              ___wdtc equ [26]
 396  001C              ___acerl equ [67]
 396  001C              ___cpc equ [62]
 396  001C              ___pb equ [37]
 396  001C              ___pc equ [64]
 396  001C              ___pa equ [20]
 396  001C              ___pac equ [21]
 396  001C              ___pbc equ [38]
 396  001C              ___pcc equ [65]
 396  001C              ___pcpu equ [66]
 396  001C              ___papu equ [22]
 396  001C              ___pbpu equ [39]
 396  001C              ___iicc0 equ [73]
 396  001C              ___iica equ [76]
 396  001C              ___intc2 equ [16]
 396  001C              ___tbc equ [27]
 396  001C              ___intc1 equ [15]
 396  001C              public _Init_System
"File: HT66F319_I2C_UART.c  Assembler  Version HGASM0202      Page 4

 396  001C              #pragma debug scope 4 1
 257  001C              #line 257 "D:\WORK\Project\Github\etable\code\I2C\HT66F319_I2C_UART.c"
 257  0000              _Init_System .section 'code'
 257  0000              _Init_System proc
 258  0000              #line 258 "D:\WORK\Project\Github\etable\code\I2C\HT66F319_I2C_UART.c"
 258  0000  0FAF        	mov a,175
 258  0001  009A        	mov [26],a
 260  0002              #line 260 "D:\WORK\Project\Github\etable\code\I2C\HT66F319_I2C_UART.c"
 260  0002  1F43        	clr [67]
 261  0003              #line 261 "D:\WORK\Project\Github\etable\code\I2C\HT66F319_I2C_UART.c"
 261  0003  31BE        	set [62].3
 262  0004              #line 262 "D:\WORK\Project\Github\etable\code\I2C\HT66F319_I2C_UART.c"
 262  0004  37BE        	clr [62].7
 265  0005              #line 265 "D:\WORK\Project\Github\etable\code\I2C\HT66F319_I2C_UART.c"
 265  0005  0F00        	mov a,0
 265  0006  2000     R  	call _Led_Current_Set
 267  0007              #line 267 "D:\WORK\Project\Github\etable\code\I2C\HT66F319_I2C_UART.c"
 267  0007  3425        	clr [37].0
 268  0008              #line 268 "D:\WORK\Project\Github\etable\code\I2C\HT66F319_I2C_UART.c"
 268  0008  34A5        	clr [37].1
 269  0009              #line 269 "D:\WORK\Project\Github\etable\code\I2C\HT66F319_I2C_UART.c"
 269  0009  3525        	clr [37].2
 270  000A              #line 270 "D:\WORK\Project\Github\etable\code\I2C\HT66F319_I2C_UART.c"
 270  000A  35C0        	clr [64].3
 271  000B              #line 271 "D:\WORK\Project\Github\etable\code\I2C\HT66F319_I2C_UART.c"
 271  000B  3640        	clr [64].4
 272  000C              #line 272 "D:\WORK\Project\Github\etable\code\I2C\HT66F319_I2C_UART.c"
 272  000C  3614        	clr [20].4
 273  000D              #line 273 "D:\WORK\Project\Github\etable\code\I2C\HT66F319_I2C_UART.c"
 273  000D  3694        	clr [20].5
 274  000E              #line 274 "D:\WORK\Project\Github\etable\code\I2C\HT66F319_I2C_UART.c"
 274  000E  3714        	clr [20].6
 275  000F              #line 275 "D:\WORK\Project\Github\etable\code\I2C\HT66F319_I2C_UART.c"
 275  000F  3794        	clr [20].7
 276  0010              #line 276 "D:\WORK\Project\Github\etable\code\I2C\HT66F319_I2C_UART.c"
 276  0010  35A5        	clr [37].3
 277  0011              #line 277 "D:\WORK\Project\Github\etable\code\I2C\HT66F319_I2C_UART.c"
 277  0011  3625        	clr [37].4
 278  0012              #line 278 "D:\WORK\Project\Github\etable\code\I2C\HT66F319_I2C_UART.c"
 278  0012  3615        	clr [21].4
 279  0013              #line 279 "D:\WORK\Project\Github\etable\code\I2C\HT66F319_I2C_UART.c"
 279  0013  3695        	clr [21].5
 280  0014              #line 280 "D:\WORK\Project\Github\etable\code\I2C\HT66F319_I2C_UART.c"
 280  0014  3715        	clr [21].6
 281  0015              #line 281 "D:\WORK\Project\Github\etable\code\I2C\HT66F319_I2C_UART.c"
 281  0015  3795        	clr [21].7
 283  0016              #line 283 "D:\WORK\Project\Github\etable\code\I2C\HT66F319_I2C_UART.c"
 283  0016  3426        	clr [38].0
 284  0017              #line 284 "D:\WORK\Project\Github\etable\code\I2C\HT66F319_I2C_UART.c"
 284  0017  34A6        	clr [38].1
 285  0018              #line 285 "D:\WORK\Project\Github\etable\code\I2C\HT66F319_I2C_UART.c"
 285  0018  3526        	clr [38].2
 286  0019              #line 286 "D:\WORK\Project\Github\etable\code\I2C\HT66F319_I2C_UART.c"
 286  0019  35A6        	clr [38].3
 287  001A              #line 287 "D:\WORK\Project\Github\etable\code\I2C\HT66F319_I2C_UART.c"
 287  001A  3626        	clr [38].4
 289  001B              #line 289 "D:\WORK\Project\Github\etable\code\I2C\HT66F319_I2C_UART.c"
 289  001B  35C1        	clr [65].3
 290  001C              #line 290 "D:\WORK\Project\Github\etable\code\I2C\HT66F319_I2C_UART.c"
 290  001C  3641        	clr [65].4
"File: HT66F319_I2C_UART.c  Assembler  Version HGASM0202      Page 5

 294  001D              #line 294 "D:\WORK\Project\Github\etable\code\I2C\HT66F319_I2C_UART.c"
 294  001D  3042        	set [66].0
 295  001E              #line 295 "D:\WORK\Project\Github\etable\code\I2C\HT66F319_I2C_UART.c"
 295  001E  30C2        	set [66].1
 296  001F              #line 296 "D:\WORK\Project\Github\etable\code\I2C\HT66F319_I2C_UART.c"
 296  001F  3142        	set [66].2
 297  0020              #line 297 "D:\WORK\Project\Github\etable\code\I2C\HT66F319_I2C_UART.c"
 297  0020  3096        	set [22].1
 298  0021              #line 298 "D:\WORK\Project\Github\etable\code\I2C\HT66F319_I2C_UART.c"
 298  0021  3196        	set [22].3
 299  0022              #line 299 "D:\WORK\Project\Github\etable\code\I2C\HT66F319_I2C_UART.c"
 299  0022  32A7        	set [39].5
 300  0023              #line 300 "D:\WORK\Project\Github\etable\code\I2C\HT66F319_I2C_UART.c"
 300  0023  3327        	set [39].6
 302  0024              #line 302 "D:\WORK\Project\Github\etable\code\I2C\HT66F319_I2C_UART.c"
 302  0024  3040        	set [64].0
 303  0025              #line 303 "D:\WORK\Project\Github\etable\code\I2C\HT66F319_I2C_UART.c"
 303  0025  30C0        	set [64].1
 304  0026              #line 304 "D:\WORK\Project\Github\etable\code\I2C\HT66F319_I2C_UART.c"
 304  0026  3140        	set [64].2
 305  0027              #line 305 "D:\WORK\Project\Github\etable\code\I2C\HT66F319_I2C_UART.c"
 305  0027  3094        	set [20].1
 306  0028              #line 306 "D:\WORK\Project\Github\etable\code\I2C\HT66F319_I2C_UART.c"
 306  0028  3194        	set [20].3
 307  0029              #line 307 "D:\WORK\Project\Github\etable\code\I2C\HT66F319_I2C_UART.c"
 307  0029  3325        	set [37].6
 308  002A              #line 308 "D:\WORK\Project\Github\etable\code\I2C\HT66F319_I2C_UART.c"
 308  002A  32A5        	set [37].5
 322  002B              #line 322 "D:\WORK\Project\Github\etable\code\I2C\HT66F319_I2C_UART.c"
 322  002B  30C9        	set [73].1
 323  002C              #line 323 "D:\WORK\Project\Github\etable\code\I2C\HT66F319_I2C_UART.c"
 323  002C  32C0        	set [64].5
 324  002D              #line 324 "D:\WORK\Project\Github\etable\code\I2C\HT66F319_I2C_UART.c"
 324  002D  3340        	set [64].6
 325  002E              #line 325 "D:\WORK\Project\Github\etable\code\I2C\HT66F319_I2C_UART.c"
 325  002E  32C2        	set [66].5
 326  002F              #line 326 "D:\WORK\Project\Github\etable\code\I2C\HT66F319_I2C_UART.c"
 326  002F  3342        	set [66].6
 328  0030              #line 328 "D:\WORK\Project\Github\etable\code\I2C\HT66F319_I2C_UART.c"
 328  0030  0F70        	mov a,112
 328  0031  00CC        	mov [76],a
 333  0032              #line 333 "D:\WORK\Project\Github\etable\code\I2C\HT66F319_I2C_UART.c"
 333  0032  3710        	clr [16].6
 334  0033              #line 334 "D:\WORK\Project\Github\etable\code\I2C\HT66F319_I2C_UART.c"
 334  0033  3110        	set [16].2
 354  0034              #line 354 "D:\WORK\Project\Github\etable\code\I2C\HT66F319_I2C_UART.c"
 354  0034  0FF6        	mov a,246
 354  0035  009B        	mov [27],a
 355  0036              #line 355 "D:\WORK\Project\Github\etable\code\I2C\HT66F319_I2C_UART.c"
 355  0036  378F        	clr [15].7
 356  0037              #line 356 "D:\WORK\Project\Github\etable\code\I2C\HT66F319_I2C_UART.c"
 356  0037  318F        	set [15].3
 357  0038              #line 357 "D:\WORK\Project\Github\etable\code\I2C\HT66F319_I2C_UART.c"
 357  0038  3610        	clr [16].4
 358  0039              #line 358 "D:\WORK\Project\Github\etable\code\I2C\HT66F319_I2C_UART.c"
 358  0039  3010        	set [16].0
 358  003A  0003        	ret
 358  003B              _Init_System endp
 358  003B              #line 358 "D:\WORK\Project\Github\etable\code\I2C\HT66F319_I2C_UART.c"
 358  003B              #pragma debug scope 1 1
"File: HT66F319_I2C_UART.c  Assembler  Version HGASM0202      Page 6

 358  003B              public _Digit_Set
 358  003B              #pragma debug scope 5 1
 405  003B              #line 405 "D:\WORK\Project\Github\etable\code\I2C\HT66F319_I2C_UART.c"
 405  0000              _Digit_Set .section 'code'
 405  0000              _Digit_Set proc
 405  0000  00              local _Digit_Set_2 db 1 dup(?)	; 0,1
 405  0000  0080     E  	mov ra,a
 405  0001  0080     R  	mov _Digit_Set_2[0],a
 405  0002              #pragma debug variable 8 5 _Digit_Set_2+0 "led"
 406  0002              #line 406 "D:\WORK\Project\Github\etable\code\I2C\HT66F319_I2C_UART.c"
 406  0002  0F01        	mov a,1
 406  0003  0680     E  	andm a,ra
 406  0004  3425        	clr [37].0
 406  0005  0700     E  	mov a,ra
 406  0006  05A5        	orm a,[37]
 407  0007              #line 407 "D:\WORK\Project\Github\etable\code\I2C\HT66F319_I2C_UART.c"
 407  0007  1F00     E  	clr ra
 407  0008  3C00     R  	sz _Digit_Set_2[0].1
 407  0009  1480     E  	inc ra
 407  000A  0700     E  	mov a,ra
 407  000B  0380     E  	addm a,ra
 407  000C  34A5        	clr [37].1
 407  000D  0700     E  	mov a,ra
 407  000E  05A5        	orm a,[37]
 408  000F              #line 408 "D:\WORK\Project\Github\etable\code\I2C\HT66F319_I2C_UART.c"
 408  000F  1F00     E  	clr ra
 408  0010  3C00     R  	sz _Digit_Set_2[0].2
 408  0011  3000     E  	set ra.2
 408  0012  3525        	clr [37].2
 408  0013  0700     E  	mov a,ra
 408  0014  05A5        	orm a,[37]
 409  0015              #line 409 "D:\WORK\Project\Github\etable\code\I2C\HT66F319_I2C_UART.c"
 409  0015  0700     R  	mov a,_Digit_Set_2[0]
 409  0016  0E08        	and a,8
 409  0017  0080     E  	mov ra,a
 409  0018  35C0        	clr [64].3
 409  0019  0700     E  	mov a,ra
 409  001A  05C0        	orm a,[64]
 410  001B              #line 410 "D:\WORK\Project\Github\etable\code\I2C\HT66F319_I2C_UART.c"
 410  001B  0700     R  	mov a,_Digit_Set_2[0]
 410  001C  0E10        	and a,16
 410  001D  0080     E  	mov ra,a
 410  001E  3640        	clr [64].4
 410  001F  0700     E  	mov a,ra
 410  0020  05C0        	orm a,[64]
 411  0021              #line 411 "D:\WORK\Project\Github\etable\code\I2C\HT66F319_I2C_UART.c"
 411  0021  1F00     E  	clr ra
 411  0022  3C00     R  	sz _Digit_Set_2[0].5
 411  0023  1480     E  	inc ra
 411  0024  1100     E  	swapa ra
 411  0025  0EF0        	and a,0f0h 
 411  0026  0080     E  	mov ra,a
 411  0027  3614        	clr [20].4
 411  0028  0700     E  	mov a,ra
 411  0029  0594        	orm a,[20]
 412  002A              #line 412 "D:\WORK\Project\Github\etable\code\I2C\HT66F319_I2C_UART.c"
 412  002A  1F00     E  	clr ra
 412  002B  3C00     R  	sz _Digit_Set_2[0].6
 412  002C  1480     E  	inc ra
 412  002D  1100     E  	swapa ra
"File: HT66F319_I2C_UART.c  Assembler  Version HGASM0202      Page 7

 412  002E  1885        	rl acc
 412  002F  0EE0        	and a,0e0h
 412  0030  0080     E  	mov ra,a
 412  0031  3694        	clr [20].5
 412  0032  0700     E  	mov a,ra
 412  0033  0594        	orm a,[20]
 413  0034              #line 413 "D:\WORK\Project\Github\etable\code\I2C\HT66F319_I2C_UART.c"
 413  0034  1800     R  	rla _Digit_Set_2[0]
 413  0035  0E01        	and a,1
 413  0036  0080     E  	mov ra,a
 413  0037  1900     E  	rra ra
 413  0038  1985        	rr acc
 413  0039  0EC0        	and a,0c0h
 413  003A  0080     E  	mov ra,a
 413  003B  3714        	clr [20].6
 413  003C  0700     E  	mov a,ra
 413  003D  0594        	orm a,[20]
 413  003E  0003        	ret
 413  003F              _Digit_Set endp
 413  003F              #line 413 "D:\WORK\Project\Github\etable\code\I2C\HT66F319_I2C_UART.c"
 413  003F              #pragma debug scope 1 1
 413  003F              public _Com_Sel
 413  003F              #pragma debug scope 6 1
 417  003F              #line 417 "D:\WORK\Project\Github\etable\code\I2C\HT66F319_I2C_UART.c"
 417  0000              _Com_Sel .section 'code'
 417  0000              _Com_Sel proc
 417  0000  00              local _Com_Sel_2 db 1 dup(?)	; 0,1
 417  0000  0080     R  	mov _Com_Sel_2[0],a
 417  0001              #pragma debug variable 8 6 _Com_Sel_2+0 "sel"
 418  0001              #line 418 "D:\WORK\Project\Github\etable\code\I2C\HT66F319_I2C_UART.c"
 418  0001  3794        	clr [20].7
 419  0002              #line 419 "D:\WORK\Project\Github\etable\code\I2C\HT66F319_I2C_UART.c"
 419  0002  35A5        	clr [37].3
 420  0003              #line 420 "D:\WORK\Project\Github\etable\code\I2C\HT66F319_I2C_UART.c"
 420  0003  3625        	clr [37].4
 422  0004              #line 422 "D:\WORK\Project\Github\etable\code\I2C\HT66F319_I2C_UART.c"
 422  0004  1080     R  	sz _Com_Sel_2[0]
 422  0005  2800     R  	jmp _L13
 424  0006              #line 424 "D:\WORK\Project\Github\etable\code\I2C\HT66F319_I2C_UART.c"
 424  0006  3394        	set [20].7
 424  0007  2800     R  	jmp _L12
 424  0008              _L13:
 426  0008              #line 426 "D:\WORK\Project\Github\etable\code\I2C\HT66F319_I2C_UART.c"
 426  0008  1700     R  	sdza _Com_Sel_2[0]
 426  0009  2800     R  	jmp _L15
 428  000A              #line 428 "D:\WORK\Project\Github\etable\code\I2C\HT66F319_I2C_UART.c"
 428  000A  31A5        	set [37].3
 428  000B  2800     R  	jmp _L12
 428  000C              _L15:
 430  000C              #line 430 "D:\WORK\Project\Github\etable\code\I2C\HT66F319_I2C_UART.c"
 430  000C  0700     R  	mov a,_Com_Sel_2[0]
 430  000D  0A02        	sub a,2
 430  000E  390A        	snz z
 430  000F  2800     R  	jmp _L12
 432  0010              #line 432 "D:\WORK\Project\Github\etable\code\I2C\HT66F319_I2C_UART.c"
 432  0010  3225        	set [37].4
 432  0011              _L12:
 432  0011  0003        	ret
 432  0012              _Com_Sel endp
 432  0012              #line 432 "D:\WORK\Project\Github\etable\code\I2C\HT66F319_I2C_UART.c"
"File: HT66F319_I2C_UART.c  Assembler  Version HGASM0202      Page 8

 432  0012              #pragma debug scope 1 1
 432  0012              public _Led_Scan
 432  0012              #pragma debug scope 7 1
 437  0012              #line 437 "D:\WORK\Project\Github\etable\code\I2C\HT66F319_I2C_UART.c"
 437  0000              _Led_Scan .section 'code'
 437  0000              _Led_Scan proc
 437  0000  0004[           local _Led_Scan_2 db 4 dup(?)	; 0,4
            00
            ]
 442  0004              #line 442 "D:\WORK\Project\Github\etable\code\I2C\HT66F319_I2C_UART.c"
 442  0000  0F00        	mov a,0
 442  0001  2000     R  	call _Digit_Set
 444  0002              #line 444 "D:\WORK\Project\Github\etable\code\I2C\HT66F319_I2C_UART.c"
 444  0002  0700     R  	mov a,___led_tmr_1865[0]
 444  0003  0080     R  	mov _Led_Scan_2[0],a
 444  0004  0700     R  	mov a,___led_tmr_1865[1]
 444  0005  0080     R  	mov _Led_Scan_2[1],a
 444  0006  0700     R  	mov a,___led_tmr_1865[2]
 444  0007  0080     R  	mov _Led_Scan_2[2],a
 444  0008  0700     R  	mov a,___led_tmr_1865[3]
 444  0009  0080     R  	mov _Led_Scan_2[3],a
 444  000A  0700     R  	mov a,_led_duty[0]
 444  000B  0200     R  	sub a,_Led_Scan_2[0]
 444  000C  0700     R  	mov a,_led_duty[1]
 444  000D  1200     R  	sbc a,_Led_Scan_2[1]
 444  000E  1F05        	clr acc
 444  000F  1200     R  	sbc a,_Led_Scan_2[2]
 444  0010  1F05        	clr acc
 444  0011  1200     R  	sbc a,_Led_Scan_2[3]
 444  0012  380A        	snz c
 444  0013  2800     R  	jmp _L17
 445  0014              #line 445 "D:\WORK\Project\Github\etable\code\I2C\HT66F319_I2C_UART.c"
 445  0014  0700     R  	mov a,_com[0]
 445  0015  0080     E  	mov ra,a
 445  0016  0700     E  	mov a,ra
 445  0017  2800     R  	jmp _L24
 445  0018              _L17:
 447  0018              #line 447 "D:\WORK\Project\Github\etable\code\I2C\HT66F319_I2C_UART.c"
 447  0018  0F08        	mov a,8
 447  0019              _L24:
 447  0019  2000     R  	call _Com_Sel
 449  001A              #line 449 "D:\WORK\Project\Github\etable\code\I2C\HT66F319_I2C_UART.c"
 449  001A  0F00     R  	mov a,low offset _height_str
 449  001B  0300     R  	add a,_com[0]
 449  001C  0083        	mov mp,a
 449  001D  0F00     R  	mov a,high offset _height_str
 449  001E  1F01        	clr sbp
 449  001F  1381        	adcm a,sbp
 449  0020  2000     E  	call _Crom2Prom
 449  0021  0080     E  	mov ra,a
 450  0022              #line 450 "D:\WORK\Project\Github\etable\code\I2C\HT66F319_I2C_UART.c"
 450  0022  0700     E  	mov a,ra
 450  0023  0BD0        	add a,208
 450  0024  0080     E  	mov rb,a
 450  0025  0F09        	mov a,9
 450  0026  0200     E  	sub a,rb
 450  0027  3C0A        	sz c
 450  0028  2800     R  	jmp _L25
 455  0029              #line 455 "D:\WORK\Project\Github\etable\code\I2C\HT66F319_I2C_UART.c"
 455  0029  0700     E  	mov a,ra
"File: HT66F319_I2C_UART.c  Assembler  Version HGASM0202      Page 9

 455  002A  0BBF        	add a,191
 455  002B  0080     E  	mov rb,a
 455  002C  0F05        	mov a,5
 455  002D  0200     E  	sub a,rb
 455  002E  380A        	snz c
 455  002F  2800     R  	jmp _L20
 457  0030              #line 457 "D:\WORK\Project\Github\etable\code\I2C\HT66F319_I2C_UART.c"
 457  0030  0700     E  	mov a,ra
 457  0031  0BC9        	add a,201
 457  0032  0080     E  	mov rb,a
 457  0033              _L25:
 458  0033              #line 458 "D:\WORK\Project\Github\etable\code\I2C\HT66F319_I2C_UART.c"
 458  0033  1F00     E  	clr rc
 458  0034  3C00     E  	sz rb.7
 458  0035  1F80     E  	set rc
 458  0036  0F00     R  	mov a,low offset _seg_7_table
 458  0037  0300     E  	add a,rb
 458  0038  0083        	mov mp,a
 458  0039  0F00     R  	mov a,high offset _seg_7_table
 458  003A  1300     E  	adc a,rc
 458  003B  0081        	mov sbp,a
 458  003C  2000     E  	call _Crom2Prom
 458  003D  2000     R  	call _Digit_Set
 458  003E              _L20:
 461  003E              #line 461 "D:\WORK\Project\Github\etable\code\I2C\HT66F319_I2C_UART.c"
 461  003E  0F01        	mov a,1
 461  003F  0200     R  	sub a,_com[0]
 461  0040  3C0A        	sz c
 461  0041  2800     R  	jmp _L21
 463  0042              #line 463 "D:\WORK\Project\Github\etable\code\I2C\HT66F319_I2C_UART.c"
 463  0042  1F00     R  	clr _com[0]
 464  0043              #line 464 "D:\WORK\Project\Github\etable\code\I2C\HT66F319_I2C_UART.c"
 464  0043  1080     R  	sz _Led_Scan_2[3]
 464  0044  2800     R  	jmp _LI2
 464  0045  1080     R  	sz _Led_Scan_2[2]
 464  0046  2800     R  	jmp _LI2
 464  0047  0700     R  	mov a,_Led_Scan_2[0]
 464  0048  0200     R  	sub a,_led_period[0]
 464  0049  0700     R  	mov a,_Led_Scan_2[1]
 464  004A  1200     R  	sbc a,_led_period[1]
 464  004B  380A        	snz c
 464  004C  2800     R  	jmp _L22
 464  004D              _LI2:
 465  004D              #line 465 "D:\WORK\Project\Github\etable\code\I2C\HT66F319_I2C_UART.c"
 465  004D  1F00     R  	clr ___led_tmr_1865[0]
 465  004E  1F00     R  	clr ___led_tmr_1865[1]
 465  004F  1F00     R  	clr ___led_tmr_1865[2]
 465  0050  1F00     R  	clr ___led_tmr_1865[3]
 465  0051  2800     R  	jmp _L16
 465  0052              _L22:
 467  0052              #line 467 "D:\WORK\Project\Github\etable\code\I2C\HT66F319_I2C_UART.c"
 467  0052  0F01        	mov a,1
 467  0053  0300     R  	add a,_Led_Scan_2[0]
 467  0054  0080     R  	mov ___led_tmr_1865[0],a
 467  0055  0F00        	mov a,0
 467  0056  1300     R  	adc a,_Led_Scan_2[1]
 467  0057  0080     R  	mov ___led_tmr_1865[1],a
 467  0058  0F00        	mov a,0
 467  0059  1300     R  	adc a,_Led_Scan_2[2]
 467  005A  0080     R  	mov ___led_tmr_1865[2],a
"File: HT66F319_I2C_UART.c  Assembler  Version HGASM0202      Page 10

 467  005B  0F00        	mov a,0
 467  005C  1300     R  	adc a,_Led_Scan_2[3]
 467  005D  0080     R  	mov ___led_tmr_1865[3],a
 467  005E  2800     R  	jmp _L16
 467  005F              _L21:
 470  005F              #line 470 "D:\WORK\Project\Github\etable\code\I2C\HT66F319_I2C_UART.c"
 470  005F  1480     R  	inc _com[0]
 470  0060              _L16:
 470  0060  0003        	ret
 470  0061              _Led_Scan endp
 470  0061              #line 470 "D:\WORK\Project\Github\etable\code\I2C\HT66F319_I2C_UART.c"
 470  0061              #pragma debug scope 1 1
 470  0061              public _Key_Scan
 470  0061              #pragma debug scope 8 1
 474  0061              #line 474 "D:\WORK\Project\Github\etable\code\I2C\HT66F319_I2C_UART.c"
 474  0000              _Key_Scan .section 'code'
 474  0000              _Key_Scan proc
 475  0000              #line 475 "D:\WORK\Project\Github\etable\code\I2C\HT66F319_I2C_UART.c"
 475  0000  1F00     E  	clr rd
 475  0001  3EA5        	sz [37].5
 475  0002  1480     E  	inc rd
 475  0003  1F00     E  	clr rb
 475  0004  3F25        	sz [37].6
 475  0005  1480     E  	inc rb
 475  0006  1F00     E  	clr rf
 475  0007  3D94        	sz [20].3
 475  0008  1480     E  	inc rf
 475  0009  1F00     E  	clr rg
 475  000A  3C94        	sz [20].1
 475  000B  1480     E  	inc rg
 475  000C  1F00     E  	clr rh
 475  000D  3D40        	sz [64].2
 475  000E  1480     E  	inc rh
 475  000F  1F00     E  	clr ra
 475  0010  3CC0        	sz [64].1
 475  0011  1480     E  	inc ra
 475  0012  0740        	mov a,[64]
 475  0013  0E01        	and a,1
 475  0014  0080     E  	mov rc,a
 475  0015  3000     E  	set rc.7
 475  0016  1F00     E  	clr re
 475  0017  0F06        	mov a,6
 475  0018              _LI3:
 475  0018  340A        	clr c
 475  0019  1A80     E  	rlc rd
 475  001A  1A80     E  	rlc re
 475  001B  1785        	sdz acc
 475  001C  2800     R  	jmp _LI3
 475  001D  0700     E  	mov a,rc
 475  001E  0580     E  	orm a,rd
 475  001F  1F00     E  	clr rc
 475  0020  0F05        	mov a,5
 475  0021              _LI4:
 475  0021  340A        	clr c
 475  0022  1A80     E  	rlc rb
 475  0023  1A80     E  	rlc rc
 475  0024  1785        	sdz acc
 475  0025  2800     R  	jmp _LI4
 475  0026  0700     E  	mov a,rb
 475  0027  0580     E  	orm a,rd
"File: HT66F319_I2C_UART.c  Assembler  Version HGASM0202      Page 11

 475  0028  0700     E  	mov a,rf
 475  0029  0080     E  	mov rb,a
 475  002A  1F00     E  	clr rc
 475  002B  0F04        	mov a,4
 475  002C              _LI5:
 475  002C  340A        	clr c
 475  002D  1A80     E  	rlc rb
 475  002E  1A80     E  	rlc rc
 475  002F  1785        	sdz acc
 475  0030  2800     R  	jmp _LI5
 475  0031  0700     E  	mov a,rb
 475  0032  0580     E  	orm a,rd
 475  0033  0700     E  	mov a,rg
 475  0034  0080     E  	mov rf,a
 475  0035  1F00     E  	clr rg
 475  0036  0F03        	mov a,3
 475  0037              _LI6:
 475  0037  340A        	clr c
 475  0038  1A80     E  	rlc rf
 475  0039  1A80     E  	rlc rg
 475  003A  1785        	sdz acc
 475  003B  2800     R  	jmp _LI6
 475  003C  0700     E  	mov a,rf
 475  003D  0580     E  	orm a,rd
 475  003E  0700     E  	mov a,rh
 475  003F  0080     E  	mov rf,a
 475  0040  1F00     E  	clr rg
 475  0041  340A        	clr c
 475  0042  1A80     E  	rlc rf
 475  0043  1A80     E  	rlc rg
 475  0044  340A        	clr c
 475  0045  1A80     E  	rlc rf
 475  0046  1A80     E  	rlc rg
 475  0047  0700     E  	mov a,rd
 475  0048  0580     E  	orm a,rf
 475  0049  0700     E  	mov a,ra
 475  004A  0380     E  	addm a,ra
 475  004B  0700     E  	mov a,ra
 475  004C  0580     E  	orm a,rf
 475  004D  0100     E  	cpla rf
 475  004E  0080     E  	mov rf,a
 476  004F              #line 476 "D:\WORK\Project\Github\etable\code\I2C\HT66F319_I2C_UART.c"
 476  004F  0700     E  	mov a,rf
 476  0050  0003        	ret
 476  0051              _Key_Scan endp
 476  0051              #line 476 "D:\WORK\Project\Github\etable\code\I2C\HT66F319_I2C_UART.c"
 476  0051              #pragma debug scope 1 1
 476  0051              public _Clear_Rx
 476  0051              #pragma debug scope 9 1
 479  0051              #line 479 "D:\WORK\Project\Github\etable\code\I2C\HT66F319_I2C_UART.c"
 479  0000              _Clear_Rx .section 'code'
 479  0000              _Clear_Rx proc
 480  0000              #line 480 "D:\WORK\Project\Github\etable\code\I2C\HT66F319_I2C_UART.c"
 480  0000  1F80     R  	set _buff_i2c_rx[0]
 481  0001              #line 481 "D:\WORK\Project\Github\etable\code\I2C\HT66F319_I2C_UART.c"
 481  0001  1F00     R  	clr _ptr_i2c_rx_buff[0]
 481  0002  0003        	ret
 481  0003              _Clear_Rx endp
 481  0003              #line 481 "D:\WORK\Project\Github\etable\code\I2C\HT66F319_I2C_UART.c"
 481  0003              #pragma debug scope 1 1
"File: HT66F319_I2C_UART.c  Assembler  Version HGASM0202      Page 12

 481  0003              public _Command_Parse
 481  0003              #pragma debug scope 10 1
 143  0003              #line 143 "D:\WORK\Project\Github\etable\code\I2C\HT66F319_I2C_UART.c"
 143  0000              _Command_Parse .section 'code'
 143  0000              _Command_Parse proc
 143  0000  0005[           local _Command_Parse_2 db 5 dup(?)	; 0,5
            00
            ]
 143  0005              #pragma debug variable 8 10 _Command_Parse_2+3 "ee_addr"
 143  0005              #pragma debug variable 8 10 _Command_Parse_2+2 "ee_data"
 143  0005              #pragma debug variable 8 10 _Command_Parse_2+1 "i"
 143  0005              #pragma debug variable 8 10 _Command_Parse_2+0 "n"
 148  0005              #line 148 "D:\WORK\Project\Github\etable\code\I2C\HT66F319_I2C_UART.c"
 148  0000  0700     R  	mov a,_buff_i2c_rx[0]
 148  0001  0080     R  	mov _Command_Parse_2[4],a
 148  0002  1080     R  	sz _Command_Parse_2[4]
 148  0003  2800     R  	jmp _L29
 148  0004              #line 148 "D:\WORK\Project\Github\etable\code\I2C\HT66F319_I2C_UART.c"
 148  0004  1080     R  	sz _ptr_i2c_rx_buff[0]
 148  0005  2800     R  	jmp _LI7
 148  0006  2800     R  	jmp _L42
 148  0007              _LI7:
 150  0007              #line 150 "D:\WORK\Project\Github\etable\code\I2C\HT66F319_I2C_UART.c"
 150  0007  0F00     R  	mov a,low offset _date_code
 150  0008  0080     E  	mov _my_strcpy1_2[2],a
 150  0009  0F00     R  	mov a,high offset _date_code
 150  000A  0080     E  	mov _my_strcpy1_2[3],a
 150  000B  0F00     R  	mov a,low offset _buff_i2c_tx
 150  000C  0080     E  	mov _my_strcpy1_2[0],a
 150  000D  0F00     R  	mov a,high offset _buff_i2c_tx
 150  000E  0080     E  	mov _my_strcpy1_2[1],a
 150  000F  0F08        	mov a,8
 150  0010  2000     E  	call _my_strcpy1
 150  0011  2800     R  	jmp _L51
 150  0012              _L29:
 153  0012              #line 153 "D:\WORK\Project\Github\etable\code\I2C\HT66F319_I2C_UART.c"
 153  0012  1700     R  	sdza _Command_Parse_2[4]
 153  0013  2800     R  	jmp _L32
 153  0014  0F03        	mov a,3
 153  0015  0200     R  	sub a,_ptr_i2c_rx_buff[0]
 153  0016  3C0A        	sz c
 153  0017  2800     R  	jmp _L42
 155  0018              #line 155 "D:\WORK\Project\Github\etable\code\I2C\HT66F319_I2C_UART.c"
 155  0018  0700     R  	mov a,_buff_i2c_rx[1]
 155  0019  0080     R  	mov _height_str[2],a
 156  001A              #line 156 "D:\WORK\Project\Github\etable\code\I2C\HT66F319_I2C_UART.c"
 156  001A  0700     R  	mov a,_buff_i2c_rx[2]
 156  001B  0080     R  	mov _height_str[1],a
 157  001C              #line 157 "D:\WORK\Project\Github\etable\code\I2C\HT66F319_I2C_UART.c"
 157  001C  0700     R  	mov a,_buff_i2c_rx[3]
 157  001D  0080     R  	mov _height_str[0],a
 157  001E  2800     R  	jmp _L51
 157  001F              _L32:
 160  001F              #line 160 "D:\WORK\Project\Github\etable\code\I2C\HT66F319_I2C_UART.c"
 160  001F  0700     R  	mov a,_Command_Parse_2[4]
 160  0020  0A02        	sub a,2
 160  0021  390A        	snz z
 160  0022  2800     R  	jmp _L33
 160  0023  0F02        	mov a,2
 160  0024  0200     R  	sub a,_ptr_i2c_rx_buff[0]
"File: HT66F319_I2C_UART.c  Assembler  Version HGASM0202      Page 13

 160  0025  3C0A        	sz c
 160  0026  2800     R  	jmp _L42
 162  0027              #line 162 "D:\WORK\Project\Github\etable\code\I2C\HT66F319_I2C_UART.c"
 162  0027  0700     R  	mov a,_buff_i2c_rx[1]
 162  0028  0080     E  	mov rc,a
 162  0029  0700     R  	mov a,_buff_i2c_rx[2]
 162  002A  0080     E  	mov rb,a
 162  002B  0700     E  	mov a,rb
 162  002C  0080     R  	mov _height[0],a
 162  002D  0700     E  	mov a,rc
 162  002E  0080     R  	mov _height[1],a
 163  002F              #line 163 "D:\WORK\Project\Github\etable\code\I2C\HT66F319_I2C_UART.c"
 163  002F  0F00     R  	mov a,low offset _height_str
 163  0030  0080     E  	mov _utoa_2[2],a
 163  0031  0F00     R  	mov a,high offset _height_str
 163  0032  0080     E  	mov _utoa_2[3],a
 163  0033  0700     E  	mov a,rb
 163  0034  0080     E  	mov _utoa_2[0],a
 163  0035  0700     E  	mov a,rc
 163  0036  0080     E  	mov _utoa_2[1],a
 163  0037  2000     E  	call _utoa
 164  0038              #line 164 "D:\WORK\Project\Github\etable\code\I2C\HT66F319_I2C_UART.c"
 164  0038  0700     R  	mov a,_height_str[2]
 164  0039  0080     R  	mov _buff_i2c_tx[0],a
 165  003A              #line 165 "D:\WORK\Project\Github\etable\code\I2C\HT66F319_I2C_UART.c"
 165  003A  0700     R  	mov a,_height_str[1]
 165  003B  0080     R  	mov _buff_i2c_tx[1],a
 166  003C              #line 166 "D:\WORK\Project\Github\etable\code\I2C\HT66F319_I2C_UART.c"
 166  003C  0700     R  	mov a,_height_str[0]
 166  003D  0080     R  	mov _buff_i2c_tx[2],a
 166  003E  2800     R  	jmp _L51
 166  003F              _L33:
 169  003F              #line 169 "D:\WORK\Project\Github\etable\code\I2C\HT66F319_I2C_UART.c"
 169  003F  0700     R  	mov a,_Command_Parse_2[4]
 169  0040  0A03        	sub a,3
 169  0041  390A        	snz z
 169  0042  2800     R  	jmp _L35
 169  0043  0F02        	mov a,2
 169  0044  0200     R  	sub a,_ptr_i2c_rx_buff[0]
 169  0045  3C0A        	sz c
 169  0046  2800     R  	jmp _L42
 172  0047              #line 172 "D:\WORK\Project\Github\etable\code\I2C\HT66F319_I2C_UART.c"
 172  0047  3400     R  	clr _b_ee_data_ready
 173  0048              #line 173 "D:\WORK\Project\Github\etable\code\I2C\HT66F319_I2C_UART.c"
 173  0048  0700     R  	mov a,_buff_i2c_rx[1]
 173  0049  0080     R  	mov _Command_Parse_2[0],a
 174  004A              #line 174 "D:\WORK\Project\Github\etable\code\I2C\HT66F319_I2C_UART.c"
 174  004A  0700     R  	mov a,_buff_i2c_rx[2]
 174  004B  0080     R  	mov _Command_Parse_2[3],a
 176  004C              #line 176 "D:\WORK\Project\Github\etable\code\I2C\HT66F319_I2C_UART.c"
 176  004C  1F00     R  	clr _Command_Parse_2[1]
 176  004D              _L37:
 176  004D  0700     R  	mov a,_Command_Parse_2[1]
 176  004E  0200     R  	sub a,_Command_Parse_2[0]
 176  004F  3C0A        	sz c
 176  0050  2800     R  	jmp _L52
 178  0051              #line 178 "D:\WORK\Project\Github\etable\code\I2C\HT66F319_I2C_UART.c"
 178  0051  0700     R  	mov a,_Command_Parse_2[1]
 178  0052  0080     R  	mov _Command_Parse_2[4],a
 178  0053  0700     R  	mov a,_Command_Parse_2[1]
"File: HT66F319_I2C_UART.c  Assembler  Version HGASM0202      Page 14

 178  0054  0080     E  	mov ra,a
 178  0055  0700     E  	mov a,ra
 178  0056  2000     E  	call _EE_Read_Byte
 178  0057  0080     E  	mov ra,a
 178  0058  0F00     R  	mov a,low offset _buff_i2c_tx
 178  0059  0300     R  	add a,_Command_Parse_2[4]
 178  005A  0083        	mov mp,a
 178  005B  0F00     R  	mov a,high offset _buff_i2c_tx
 178  005C  1F01        	clr sbp
 178  005D  1381        	adcm a,sbp
 178  005E  0701        	mov a,sbp
 178  005F  0084        	mov bp,a
 178  0060  0700     E  	mov a,ra
 178  0061  0082        	mov ir,a
 176  0062              #line 176 "D:\WORK\Project\Github\etable\code\I2C\HT66F319_I2C_UART.c"
 176  0062  1480     R  	inc _Command_Parse_2[1]
 176  0063  2800     R  	jmp _L37
 176  0064              _L52:
 180  0064              #line 180 "D:\WORK\Project\Github\etable\code\I2C\HT66F319_I2C_UART.c"
 180  0064  3000     R  	set _b_ee_data_ready
 180  0065  2800     R  	jmp _L51
 180  0066              _L35:
 184  0066              #line 184 "D:\WORK\Project\Github\etable\code\I2C\HT66F319_I2C_UART.c"
 184  0066  0700     R  	mov a,_Command_Parse_2[4]
 184  0067  0A04        	sub a,4
 184  0068  390A        	snz z
 184  0069  2800     R  	jmp _L30
 184  006A  0F02        	mov a,2
 184  006B  0200     R  	sub a,_ptr_i2c_rx_buff[0]
 184  006C  3C0A        	sz c
 184  006D  2800     R  	jmp _L42
 186  006E              #line 186 "D:\WORK\Project\Github\etable\code\I2C\HT66F319_I2C_UART.c"
 186  006E  0700     R  	mov a,_buff_i2c_rx[1]
 186  006F  0080     R  	mov _Command_Parse_2[3],a
 187  0070              #line 187 "D:\WORK\Project\Github\etable\code\I2C\HT66F319_I2C_UART.c"
 187  0070  0700     R  	mov a,_buff_i2c_rx[2]
 187  0071  0080     R  	mov _Command_Parse_2[2],a
 188  0072              #line 188 "D:\WORK\Project\Github\etable\code\I2C\HT66F319_I2C_UART.c"
 188  0072  0700     R  	mov a,_Command_Parse_2[3]
 188  0073  0080     E  	mov ra,a
 188  0074  0700     R  	mov a,_Command_Parse_2[2]
 188  0075  0080     E  	mov _EE_Write_Byte_2[0],a
 188  0076  0700     E  	mov a,ra
 188  0077  2000     E  	call _EE_Write_Byte
 188  0078  2800     R  	jmp _L51
 188  0079              _L30:
 192  0079              #line 192 "D:\WORK\Project\Github\etable\code\I2C\HT66F319_I2C_UART.c"
 192  0079  0700     R  	mov a,_Command_Parse_2[4]
 192  007A  0A05        	sub a,5
 192  007B  390A        	snz z
 192  007C  2800     R  	jmp _L40
 192  007D  0700     R  	mov a,_buff_i2c_rx[1]
 192  007E  0080     E  	mov ra,a
 192  007F  0700     R  	mov a,_ptr_i2c_rx_buff[0]
 192  0080  0080     E  	mov rd,a
 192  0081  1F00     E  	clr re
 192  0082  0F03        	mov a,3
 192  0083  0300     E  	add a,ra
 192  0084  0080     E  	mov rb,a
 192  0085  0F00        	mov a,0
"File: HT66F319_I2C_UART.c  Assembler  Version HGASM0202      Page 15

 192  0086  1F00     E  	clr rc
 192  0087  1380     E  	adcm a,rc
 192  0088  0700     E  	mov a,rd
 192  0089  0200     E  	sub a,rb
 192  008A  0700     E  	mov a,re
 192  008B  1200     E  	sbc a,rc
 192  008C  1185        	swap acc
 192  008D  040A        	xor a,status
 192  008E  3D85        	sz acc.3
 192  008F  2800     R  	jmp _L42
 194  0090              #line 194 "D:\WORK\Project\Github\etable\code\I2C\HT66F319_I2C_UART.c"
 194  0090  0700     E  	mov a,ra
 194  0091  0080     R  	mov _Command_Parse_2[0],a
 195  0092              #line 195 "D:\WORK\Project\Github\etable\code\I2C\HT66F319_I2C_UART.c"
 195  0092  0700     R  	mov a,_buff_i2c_rx[2]
 195  0093  0080     R  	mov _Command_Parse_2[3],a
 196  0094              #line 196 "D:\WORK\Project\Github\etable\code\I2C\HT66F319_I2C_UART.c"
 196  0094  0700     R  	mov a,_Command_Parse_2[3]
 196  0095  0080     E  	mov _EE_Write_2[0],a
 196  0096  0700     R  	mov a,_Command_Parse_2[0]
 196  0097  0080     E  	mov ra,a
 196  0098  0F00     R  	mov a,low (offset _buff_i2c_rx+3)
 196  0099  0080     E  	mov _EE_Write_2[1],a
 196  009A  0F00     R  	mov a,high (offset _buff_i2c_rx+3)
 196  009B  0080     E  	mov _EE_Write_2[2],a
 196  009C  0700     E  	mov a,ra
 196  009D  2000     E  	call _EE_Write
 196  009E  2800     R  	jmp _L51
 196  009F              _L40:
 200  009F              #line 200 "D:\WORK\Project\Github\etable\code\I2C\HT66F319_I2C_UART.c"
 200  009F  0700     R  	mov a,_Command_Parse_2[4]
 200  00A0  0A06        	sub a,6
 200  00A1  390A        	snz z
 200  00A2  2800     R  	jmp _L34
 200  00A3  1080     R  	sz _ptr_i2c_rx_buff[0]
 200  00A4  2800     R  	jmp _LI8
 200  00A5  2800     R  	jmp _L42
 200  00A6              _LI8:
 202  00A6              #line 202 "D:\WORK\Project\Github\etable\code\I2C\HT66F319_I2C_UART.c"
 202  00A6  0700     R  	mov a,_key_stat[0]
 202  00A7  0080     R  	mov _buff_i2c_tx[0],a
 202  00A8  2800     R  	jmp _L51
 202  00A9              _L34:
 205  00A9              #line 205 "D:\WORK\Project\Github\etable\code\I2C\HT66F319_I2C_UART.c"
 205  00A9  0700     R  	mov a,_Command_Parse_2[4]
 205  00AA  0A20        	sub a,32
 205  00AB  390A        	snz z
 205  00AC  2800     R  	jmp _L36
 205  00AD  0F01        	mov a,1
 205  00AE  0200     R  	sub a,_ptr_i2c_rx_buff[0]
 205  00AF  3C0A        	sz c
 205  00B0  2800     R  	jmp _L42
 207  00B1              #line 207 "D:\WORK\Project\Github\etable\code\I2C\HT66F319_I2C_UART.c"
 207  00B1  0700     R  	mov a,_buff_i2c_rx[1]
 207  00B2  2000     R  	call _Led_Current_Set
 207  00B3  2800     R  	jmp _L51
 207  00B4              _L36:
 210  00B4              #line 210 "D:\WORK\Project\Github\etable\code\I2C\HT66F319_I2C_UART.c"
 210  00B4  0700     R  	mov a,_Command_Parse_2[4]
 210  00B5  0A21        	sub a,33
"File: HT66F319_I2C_UART.c  Assembler  Version HGASM0202      Page 16

 210  00B6  390A        	snz z
 210  00B7  2800     R  	jmp _L39
 210  00B8  0F04        	mov a,4
 210  00B9  0200     R  	sub a,_ptr_i2c_rx_buff[0]
 210  00BA  3C0A        	sz c
 210  00BB  2800     R  	jmp _L42
 212  00BC              #line 212 "D:\WORK\Project\Github\etable\code\I2C\HT66F319_I2C_UART.c"
 212  00BC  0700     R  	mov a,_buff_i2c_rx[1]
 212  00BD  0080     R  	mov _led_duty[1],a
 212  00BE  0700     R  	mov a,_buff_i2c_rx[2]
 212  00BF  0080     R  	mov _led_duty[0],a
 213  00C0              #line 213 "D:\WORK\Project\Github\etable\code\I2C\HT66F319_I2C_UART.c"
 213  00C0  0700     R  	mov a,_buff_i2c_rx[3]
 213  00C1  0080     R  	mov _led_period[1],a
 213  00C2  0700     R  	mov a,_buff_i2c_rx[4]
 213  00C3  0080     R  	mov _led_period[0],a
 213  00C4  2800     R  	jmp _L51
 213  00C5              _L39:
 216  00C5              #line 216 "D:\WORK\Project\Github\etable\code\I2C\HT66F319_I2C_UART.c"
 216  00C5  0700     R  	mov a,_Command_Parse_2[4]
 216  00C6  0A10        	sub a,16
 216  00C7  390A        	snz z
 216  00C8  2800     R  	jmp _L41
 216  00C9  0F02        	mov a,2
 216  00CA  0200     R  	sub a,_ptr_i2c_rx_buff[0]
 216  00CB  3C0A        	sz c
 216  00CC  2800     R  	jmp _L42
 218  00CD              #line 218 "D:\WORK\Project\Github\etable\code\I2C\HT66F319_I2C_UART.c"
 218  00CD  0700     R  	mov a,_buff_i2c_rx[1]
 218  00CE  0080     R  	mov _Command_Parse_2[0],a
 219  00CF              #line 219 "D:\WORK\Project\Github\etable\code\I2C\HT66F319_I2C_UART.c"
 219  00CF  0700     R  	mov a,_buff_i2c_rx[2]
 219  00D0  0080     R  	mov _Command_Parse_2[3],a
 223  00D1              #line 223 "D:\WORK\Project\Github\etable\code\I2C\HT66F319_I2C_UART.c"
 223  00D1  1F00     R  	clr _Command_Parse_2[1]
 223  00D2              _L43:
 223  00D2  0700     R  	mov a,_Command_Parse_2[1]
 223  00D3  0200     R  	sub a,_Command_Parse_2[0]
 223  00D4  3C0A        	sz c
 223  00D5  2800     R  	jmp _L51
 225  00D6              #line 225 "D:\WORK\Project\Github\etable\code\I2C\HT66F319_I2C_UART.c"
 225  00D6  0700     R  	mov a,_Command_Parse_2[3]
 225  00D7  0080     E  	mov rb,a
 225  00D8  1F00     E  	clr rc
 225  00D9  0700     R  	mov a,_Command_Parse_2[1]
 225  00DA  0380     E  	addm a,rb
 225  00DB  3C0A        	sz c
 225  00DC  1480     E  	inc rc
 225  00DD  0F00     R  	mov a,low offset _buff_test
 225  00DE  0300     E  	add a,rb
 225  00DF  0083        	mov mp,a
 225  00E0  0F00     R  	mov a,high offset _buff_test
 225  00E1  1300     E  	adc a,rc
 225  00E2  0081        	mov sbp,a
 225  00E3  2000     E  	call _Crom2Prom
 225  00E4  0080     E  	mov ra,a
 225  00E5  0F00     R  	mov a,low offset _buff_i2c_tx
 225  00E6  0300     R  	add a,_Command_Parse_2[1]
 225  00E7  0083        	mov mp,a
 225  00E8  0F00     R  	mov a,high offset _buff_i2c_tx
"File: HT66F319_I2C_UART.c  Assembler  Version HGASM0202      Page 17

 225  00E9  1F01        	clr sbp
 225  00EA  1381        	adcm a,sbp
 225  00EB  0701        	mov a,sbp
 225  00EC  0084        	mov bp,a
 225  00ED  0700     E  	mov a,ra
 225  00EE  0082        	mov ir,a
 223  00EF              #line 223 "D:\WORK\Project\Github\etable\code\I2C\HT66F319_I2C_UART.c"
 223  00EF  1480     R  	inc _Command_Parse_2[1]
 223  00F0  2800     R  	jmp _L43
 223  00F1              _L41:
 230  00F1              #line 230 "D:\WORK\Project\Github\etable\code\I2C\HT66F319_I2C_UART.c"
 230  00F1  0700     R  	mov a,_Command_Parse_2[4]
 230  00F2  0A11        	sub a,17
 230  00F3  390A        	snz z
 230  00F4  2800     R  	jmp _L42
 230  00F5  0F02        	mov a,2
 230  00F6  0200     R  	sub a,_ptr_i2c_rx_buff[0]
 230  00F7  3C0A        	sz c
 230  00F8  2800     R  	jmp _L42
 232  00F9              #line 232 "D:\WORK\Project\Github\etable\code\I2C\HT66F319_I2C_UART.c"
 232  00F9  0700     R  	mov a,_buff_i2c_rx[1]
 232  00FA  0080     R  	mov _Command_Parse_2[3],a
 233  00FB              #line 233 "D:\WORK\Project\Github\etable\code\I2C\HT66F319_I2C_UART.c"
 233  00FB  0700     R  	mov a,_buff_i2c_rx[2]
 233  00FC  0080     R  	mov _Command_Parse_2[2],a
 234  00FD              #line 234 "D:\WORK\Project\Github\etable\code\I2C\HT66F319_I2C_UART.c"
 234  00FD  0F00     R  	mov a,low offset _buff_test
 234  00FE  0300     R  	add a,_Command_Parse_2[3]
 234  00FF  0083        	mov mp,a
 234  0100  0F00     R  	mov a,high offset _buff_test
 234  0101  1F01        	clr sbp
 234  0102  1381        	adcm a,sbp
 234  0103  0701        	mov a,sbp
 234  0104  0084        	mov bp,a
 234  0105  0700     R  	mov a,_Command_Parse_2[2]
 234  0106  0082        	mov ir,a
 234  0107              _L51:
 236  0107              #line 236 "D:\WORK\Project\Github\etable\code\I2C\HT66F319_I2C_UART.c"
 236  0107  2000     R  	call _Clear_Rx
 236  0108  2800     R  	jmp _L28
 236  0109              _L42:
 252  0109              #line 252 "D:\WORK\Project\Github\etable\code\I2C\HT66F319_I2C_UART.c"
 252  0109              ;# 252 "D:\WORK\Project\Github\etable\code\I2C\HT66F319_I2C_UART.c" 1
 252  0109  0001        	clr wdt
 252  010A              _L28:
 252  010A  0003        	ret
 252  010B              _Command_Parse endp
 252  010B              #line 252 "D:\WORK\Project\Github\etable\code\I2C\HT66F319_I2C_UART.c"
 252  010B              #pragma debug scope 1 1
 252  010B              ___intc0 equ [14]
 252  010B              public _main
 252  010B              #pragma debug scope 11 1
  82  010B              #line 82 "D:\WORK\Project\Github\etable\code\I2C\HT66F319_I2C_UART.c"
  82  010B              IFDEF WITH_DEFAULT_STARTUP
  82  010B              extern _main_initial0:near
  82  010B              extern _main_startup:near
  82  010B              ENDIF
  82  010B              
  82  010B              ROMBANK 0 @start
  82  0000              @start .section com_l 'code'
"File: HT66F319_I2C_UART.c  Assembler  Version HGASM0202      Page 18

  82  0000              _main_startup1:
  82  0000              @start .section com_e 'code'
  82  0000  2800     R  	jmp _main
  82  0001              
  82  0000              _main .section 'code'
  82  0000              _main proc
  86  0000              #line 86 "D:\WORK\Project\Github\etable\code\I2C\HT66F319_I2C_UART.c"
  86  0000  2000     R  	call _Init_Vars
  87  0001              #line 87 "D:\WORK\Project\Github\etable\code\I2C\HT66F319_I2C_UART.c"
  87  0001  2000     R  	call _Init_System
 107  0002              #line 107 "D:\WORK\Project\Github\etable\code\I2C\HT66F319_I2C_UART.c"
 107  0002  300E        	set [14].0
 107  0003              _L54:
 111  0003              #line 111 "D:\WORK\Project\Github\etable\code\I2C\HT66F319_I2C_UART.c"
 111  0003              ;# 111 "D:\WORK\Project\Github\etable\code\I2C\HT66F319_I2C_UART.c" 1
 111  0003  0001        	clr wdt
 112  0004              #line 112 "D:\WORK\Project\Github\etable\code\I2C\HT66F319_I2C_UART.c"
 112  0004  2000     R  	call _Command_Parse
 112  0005  2800     R  	jmp _L54
 112  0006  2800     R  	jmp $
 112  0007              _main endp
 112  0007              
 112  0007              @dummy endp
 112  0007              
 112  0007              #line 112 "D:\WORK\Project\Github\etable\code\I2C\HT66F319_I2C_UART.c"
 112  0007              #pragma debug scope 1 1
 112  0007              public _Int_Tb0
 112  0007              #pragma debug scope 12 1
 488  0007              #line 488 "D:\WORK\Project\Github\etable\code\I2C\HT66F319_I2C_UART.c"
 488  0000              @Int_Tb0_code .section at 28 'code'
 488  0000  0080     E  	mov r1,a
 488  0001  0704        	mov a,bp
 488  0002  0080     E  	mov r2,a
 488  0003  2800     R  	jmp _Int_Tb0
 488  0004              #pragma debug scope 1 1
 488  0004              @dummy28 endp
 488  0004              #pragma debug scope 13 1
 488  0000              _Int_Tb0 .section 'code'
 488  0000              _Int_Tb0 proc
 488  0000  070A        	mov a,status
 488  0001  0080     E  	mov r3,a
 488  0002  0703        	mov a,mp
 488  0003  0080     E  	mov r4,a
 488  0004  0701        	mov a,sbp
 488  0005  0080     E  	mov r5,a
 488  0006  0707        	mov a,tblp
 488  0007  0080     E  	mov r6,a
 488  0008  0709        	mov a,tbhp
 488  0009  0080     E  	mov r7,a
 490  000A              #line 490 "D:\WORK\Project\Github\etable\code\I2C\HT66F319_I2C_UART.c"
 490  000A              ;# 490 "D:\WORK\Project\Github\etable\code\I2C\HT66F319_I2C_UART.c" 1
 490  000A  0001        	clr wdt
 491  000B              #line 491 "D:\WORK\Project\Github\etable\code\I2C\HT66F319_I2C_UART.c"
 491  000B  2000     R  	call _Led_Scan
 492  000C              #line 492 "D:\WORK\Project\Github\etable\code\I2C\HT66F319_I2C_UART.c"
 492  000C  378F        	clr [15].7
 492  000D  0700     E  	mov a,r2
 492  000E  0084        	mov bp,a
 492  000F  0700     E  	mov a,r3
 492  0010  008A        	mov status,a
"File: HT66F319_I2C_UART.c  Assembler  Version HGASM0202      Page 19

 492  0011  0700     E  	mov a,r4
 492  0012  0083        	mov mp,a
 492  0013  0700     E  	mov a,r5
 492  0014  0081        	mov sbp,a
 492  0015  0700     E  	mov a,r6
 492  0016  0087        	mov tblp,a
 492  0017  0700     E  	mov a,r7
 492  0018  0089        	mov tbhp,a
 492  0019  1D05        	tabrdc acc
 492  001A  0700     E  	mov a,r1
 492  001B  0004        	reti
 492  001C              _Int_Tb0 endp
 492  001C              
 492  001C              #line 492 "D:\WORK\Project\Github\etable\code\I2C\HT66F319_I2C_UART.c"
 492  001C              #pragma debug scope 1 1
 492  001C              public _Int_Tb1
 492  001C              #pragma debug scope 14 1
 496  001C              #line 496 "D:\WORK\Project\Github\etable\code\I2C\HT66F319_I2C_UART.c"
 496  0000              @Int_Tb1_code .section at 32 'code'
 496  0000  0080     E  	mov r1,a
 496  0001  0704        	mov a,bp
 496  0002  0080     E  	mov r2,a
 496  0003  2800     R  	jmp _Int_Tb1
 496  0004              #pragma debug scope 1 1
 496  0004              @dummy32 endp
 496  0004              #pragma debug scope 15 1
 496  0000              _Int_Tb1 .section 'code'
 496  0000              _Int_Tb1 proc
 496  0000  070A        	mov a,status
 496  0001  0080     E  	mov r3,a
 496  0002  0703        	mov a,mp
 496  0003  0080     E  	mov r4,a
 496  0004  0701        	mov a,sbp
 496  0005  0080     E  	mov r5,a
 496  0006  0707        	mov a,tblp
 496  0007  0080     E  	mov r6,a
 496  0008  0709        	mov a,tbhp
 496  0009  0080     E  	mov r7,a
 497  000A              #line 497 "D:\WORK\Project\Github\etable\code\I2C\HT66F319_I2C_UART.c"
 497  000A              ;# 497 "D:\WORK\Project\Github\etable\code\I2C\HT66F319_I2C_UART.c" 1
 497  000A  0001        	clr wdt
 499  000B              #line 499 "D:\WORK\Project\Github\etable\code\I2C\HT66F319_I2C_UART.c"
 499  000B  2000     R  	call _Key_Scan
 499  000C  0080     E  	mov ra,a
 499  000D  0700     E  	mov a,ra
 499  000E  0080     R  	mov _key_stat[0],a
 501  000F              #line 501 "D:\WORK\Project\Github\etable\code\I2C\HT66F319_I2C_UART.c"
 501  000F  3610        	clr [16].4
 501  0010  0700     E  	mov a,r2
 501  0011  0084        	mov bp,a
 501  0012  0700     E  	mov a,r3
 501  0013  008A        	mov status,a
 501  0014  0700     E  	mov a,r4
 501  0015  0083        	mov mp,a
 501  0016  0700     E  	mov a,r5
 501  0017  0081        	mov sbp,a
 501  0018  0700     E  	mov a,r6
 501  0019  0087        	mov tblp,a
 501  001A  0700     E  	mov a,r7
 501  001B  0089        	mov tbhp,a
"File: HT66F319_I2C_UART.c  Assembler  Version HGASM0202      Page 20

 501  001C  1D05        	tabrdc acc
 501  001D  0700     E  	mov a,r1
 501  001E  0004        	reti
 501  001F              _Int_Tb1 endp
 501  001F              
 501  001F              #line 501 "D:\WORK\Project\Github\etable\code\I2C\HT66F319_I2C_UART.c"
 501  001F              #pragma debug scope 1 1
 501  001F              public _Int_UART
 501  001F              #pragma debug scope 16 1
 505  001F              #line 505 "D:\WORK\Project\Github\etable\code\I2C\HT66F319_I2C_UART.c"
 505  0000              @Int_UART_code .section at 44 'code'
 505  0000  0080     E  	mov r1,a
 505  0001  070A        	mov a,status
 505  0002  0080     E  	mov r2,a
 505  0003  2800     R  	jmp _Int_UART
 505  0004              #pragma debug scope 1 1
 505  0004              @dummy44 endp
 505  0004              #pragma debug scope 17 1
 505  0000              _Int_UART .section 'code'
 505  0000              _Int_UART proc
 508  0000              #line 508 "D:\WORK\Project\Github\etable\code\I2C\HT66F319_I2C_UART.c"
 508  0000              ;# 508 "D:\WORK\Project\Github\etable\code\I2C\HT66F319_I2C_UART.c" 1
 508  0000  0001        	clr wdt
 536  0001              #line 536 "D:\WORK\Project\Github\etable\code\I2C\HT66F319_I2C_UART.c"
 536  0001  3790        	clr [16].7
 536  0002  0700     E  	mov a,r2
 536  0003  008A        	mov status,a
 536  0004  0700     E  	mov a,r1
 536  0005  0004        	reti
 536  0006              _Int_UART endp
 536  0006              
 536  0006              #line 536 "D:\WORK\Project\Github\etable\code\I2C\HT66F319_I2C_UART.c"
 536  0006              #pragma debug scope 1 1
 536  0006              ___i2ctoc equ [77]
 536  0006              ___iicc1 equ [74]
 536  0006              ___iicd equ [75]
 536  0006              public _Int_I2C
 536  0006              #pragma debug scope 18 1
 540  0006              #line 540 "D:\WORK\Project\Github\etable\code\I2C\HT66F319_I2C_UART.c"
 540  0000              @Int_I2C_code .section at 40 'code'
 540  0000  0080     E  	mov r1,a
 540  0001  0704        	mov a,bp
 540  0002  0080     E  	mov r2,a
 540  0003  2800     R  	jmp _Int_I2C
 540  0004              #pragma debug scope 1 1
 540  0004              @dummy40 endp
 540  0004              #pragma debug scope 19 1
 540  0000              _Int_I2C .section 'code'
 540  0000              _Int_I2C proc
 540  0000  00          local _Int_I2C_2 db 1 dup(?)
 540  0000  070A        	mov a,status
 540  0001  0080     E  	mov r3,a
 540  0002  0703        	mov a,mp
 540  0003  0080     E  	mov r4,a
 540  0004  0701        	mov a,sbp
 540  0005  0080     E  	mov r5,a
 540  0006  0707        	mov a,tblp
 540  0007  0080     E  	mov r6,a
 540  0008  0709        	mov a,tbhp
 540  0009  0080     E  	mov r7,a
"File: HT66F319_I2C_UART.c  Assembler  Version HGASM0202      Page 21

 540  000A              #pragma debug variable 8 19 _Int_I2C_2+0 "u8temp"
 542  000A              #line 542 "D:\WORK\Project\Github\etable\code\I2C\HT66F319_I2C_UART.c"
 542  000A  300E        	set [14].0
 544  000B              #line 544 "D:\WORK\Project\Github\etable\code\I2C\HT66F319_I2C_UART.c"
 544  000B              ;# 544 "D:\WORK\Project\Github\etable\code\I2C\HT66F319_I2C_UART.c" 1
 544  000B  0001        	clr wdt
 545  000C              #line 545 "D:\WORK\Project\Github\etable\code\I2C\HT66F319_I2C_UART.c"
 545  000C  3B4D        	snz [77].6
 545  000D  2800     R  	jmp _L59
 547  000E              #line 547 "D:\WORK\Project\Github\etable\code\I2C\HT66F319_I2C_UART.c"
 547  000E  33CD        	set [77].7
 548  000F              #line 548 "D:\WORK\Project\Github\etable\code\I2C\HT66F319_I2C_UART.c"
 548  000F  374D        	clr [77].6
 548  0010  2800     R  	jmp _L60
 548  0011              _L59:
 552  0011              #line 552 "D:\WORK\Project\Github\etable\code\I2C\HT66F319_I2C_UART.c"
 552  0011  3B4A        	snz [74].6
 552  0012  2800     R  	jmp _L61
 554  0013              #line 554 "D:\WORK\Project\Github\etable\code\I2C\HT66F319_I2C_UART.c"
 554  0013  1F00     R  	clr _ptr_i2c_tx_buff[0]
 555  0014              #line 555 "D:\WORK\Project\Github\etable\code\I2C\HT66F319_I2C_UART.c"
 555  0014  394A        	snz [74].2
 555  0015  2800     R  	jmp _L64
 557  0016              #line 557 "D:\WORK\Project\Github\etable\code\I2C\HT66F319_I2C_UART.c"
 557  0016  324A        	set [74].4
 557  0017  2800     R  	jmp _L65
 557  0018              _L61:
 572  0018              #line 572 "D:\WORK\Project\Github\etable\code\I2C\HT66F319_I2C_UART.c"
 572  0018  3E4A        	sz [74].4
 572  0019  2800     R  	jmp _L63
 574  001A              #line 574 "D:\WORK\Project\Github\etable\code\I2C\HT66F319_I2C_UART.c"
 574  001A  0F0E        	mov a,14
 574  001B  0200     R  	sub a,_ptr_i2c_rx_buff[0]
 574  001C  380A        	snz c
 574  001D  2800     R  	jmp _L60
 576  001E              #line 576 "D:\WORK\Project\Github\etable\code\I2C\HT66F319_I2C_UART.c"
 576  001E  0F00     R  	mov a,low offset _buff_i2c_rx
 576  001F  0300     R  	add a,_ptr_i2c_rx_buff[0]
 576  0020  0083        	mov mp,a
 576  0021  0F00     R  	mov a,high offset _buff_i2c_rx
 576  0022  1F01        	clr sbp
 576  0023  1381        	adcm a,sbp
 576  0024  0701        	mov a,sbp
 576  0025  0084        	mov bp,a
 576  0026  074B        	mov a,[75]
 576  0027  0082        	mov ir,a
 577  0028              #line 577 "D:\WORK\Project\Github\etable\code\I2C\HT66F319_I2C_UART.c"
 577  0028              ;# 577 "D:\WORK\Project\Github\etable\code\I2C\HT66F319_I2C_UART.c" 1
 577  0028  0000        	nop
 578  0029              #line 578 "D:\WORK\Project\Github\etable\code\I2C\HT66F319_I2C_UART.c"
 578  0029  1480     R  	inc _ptr_i2c_rx_buff[0]
 578  002A  2800     R  	jmp _L60
 578  002B              _L63:
 584  002B              #line 584 "D:\WORK\Project\Github\etable\code\I2C\HT66F319_I2C_UART.c"
 584  002B  3C4A        	sz [74].0
 584  002C  2800     R  	jmp _L64
 584  002D              _L65:
 586  002D              #line 586 "D:\WORK\Project\Github\etable\code\I2C\HT66F319_I2C_UART.c"
 586  002D  0F00     R  	mov a,low offset _buff_i2c_tx
 586  002E  0300     R  	add a,_ptr_i2c_tx_buff[0]
"File: HT66F319_I2C_UART.c  Assembler  Version HGASM0202      Page 22

 586  002F  0083        	mov mp,a
 586  0030  0F00     R  	mov a,high offset _buff_i2c_tx
 586  0031  1F01        	clr sbp
 586  0032  1381        	adcm a,sbp
 586  0033  2000     E  	call _Crom2Prom
 586  0034  00CB        	mov [75],a
 587  0035              #line 587 "D:\WORK\Project\Github\etable\code\I2C\HT66F319_I2C_UART.c"
 587  0035  1480     R  	inc _ptr_i2c_tx_buff[0]
 587  0036  2800     R  	jmp _L60
 587  0037              _L64:
 591  0037              #line 591 "D:\WORK\Project\Github\etable\code\I2C\HT66F319_I2C_UART.c"
 591  0037  364A        	clr [74].4
 592  0038              #line 592 "D:\WORK\Project\Github\etable\code\I2C\HT66F319_I2C_UART.c"
 592  0038  35CA        	clr [74].3
 593  0039              #line 593 "D:\WORK\Project\Github\etable\code\I2C\HT66F319_I2C_UART.c"
 593  0039  074B        	mov a,[75]
 593  003A  0080     R  	mov _Int_I2C_2[0],a
 593  003B              _L60:
 599  003B              #line 599 "D:\WORK\Project\Github\etable\code\I2C\HT66F319_I2C_UART.c"
 599  003B  3710        	clr [16].6
 600  003C              #line 600 "D:\WORK\Project\Github\etable\code\I2C\HT66F319_I2C_UART.c"
 600  003C  300E        	set [14].0
 600  003D  0700     E  	mov a,r2
 600  003E  0084        	mov bp,a
 600  003F  0700     E  	mov a,r3
 600  0040  008A        	mov status,a
 600  0041  0700     E  	mov a,r4
 600  0042  0083        	mov mp,a
 600  0043  0700     E  	mov a,r5
 600  0044  0081        	mov sbp,a
 600  0045  0700     E  	mov a,r6
 600  0046  0087        	mov tblp,a
 600  0047  0700     E  	mov a,r7
 600  0048  0089        	mov tbhp,a
 600  0049  1D05        	tabrdc acc
 600  004A  0700     E  	mov a,r1
 600  004B  0004        	reti
 600  004C              _Int_I2C endp
 600  004C              
 600  004C              #line 600 "D:\WORK\Project\Github\etable\code\I2C\HT66F319_I2C_UART.c"
 600  004C              #pragma debug scope 1 1
 600  004C              ___lvrc equ [29]
 600  004C              public _Power_On_Reset
 600  004C              #pragma debug scope 20 1
 604  004C              #line 604 "D:\WORK\Project\Github\etable\code\I2C\HT66F319_I2C_UART.c"
 604  0000              _Power_On_Reset .section 'code'
 604  0000              _Power_On_Reset proc
 605  0000              #line 605 "D:\WORK\Project\Github\etable\code\I2C\HT66F319_I2C_UART.c"
 605  0000  1F1D        	clr [29]
 605  0001  0003        	ret
 605  0002              _Power_On_Reset endp
 605  0002              #line 605 "D:\WORK\Project\Github\etable\code\I2C\HT66F319_I2C_UART.c"
 605  0002              #pragma debug scope 1 1
 605  0000              @HCCINIT0	.section	'data'
 605  0000  0004[       ___led_tmr_1865	db 4 dup(0)
            00
            ]
 605  0004              #pragma debug variable 14 7 ___led_tmr_1865 "led_tmr"
 605  0004              
 605  0000              @HCCINIT .section 'data'
"File: HT66F319_I2C_UART.c  Assembler  Version HGASM0202      Page 23

 605  0000              public _b_ee_data_ready
 605  0000              @HCCINIT	.section 'data'
  64  0000              #line 64 "D:\WORK\Project\Github\etable\code\I2C\HT66F319_I2C_UART.c"
  64  0000              @BITDATASEC .section 'data'
  64  0000  00          _b_ee_data_ready	dbit 0
  64  0001              #pragma debug variable 2 1 _b_ee_data_ready "b_ee_data_ready"
  64  0001              public _ptr_i2c_tx_buff
  62  0001              #line 62 "D:\WORK\Project\Github\etable\code\I2C\HT66F319_I2C_UART.c"
  62  0000              @HCCINIT .section 'data'
  62  0000              _ptr_i2c_tx_buff label byte
  62  0000              #pragma debug variable 8 1 _ptr_i2c_tx_buff "ptr_i2c_tx_buff"
  62  0000              	db 0
  62  0000              @ROMDATA_BASE .section inpage 'code'
  62  0000              	db 0
  62  0001              @HCCINIT .section 'data'
  62  0001              public _ptr_i2c_rx_buff
  62  0001              #line 62 "D:\WORK\Project\Github\etable\code\I2C\HT66F319_I2C_UART.c"
  62  0001              @HCCINIT .section 'data'
  62  0001              _ptr_i2c_rx_buff label byte
  62  0001              #pragma debug variable 8 1 _ptr_i2c_rx_buff "ptr_i2c_rx_buff"
  62  0001              	db 0
  62  0001              @ROMDATA_BASE .section inpage 'code'
  62  0001              	db 0
  62  0002              @HCCINIT .section 'data'
  61  0002              #line 61 "D:\WORK\Project\Github\etable\code\I2C\HT66F319_I2C_UART.c"
  61  0002              public _buff_test
  61  0004              @HCCINIT0 .section 'data'
  61  0004  0008[       _buff_test	db 8 dup(0)
            00
            ]
  61  000C              #pragma debug array 42 8 8 1
  61  000C              #pragma debug array 42 8 8 1
  61  000C              #pragma debug variable 42 1 _buff_test "buff_test"
  61  000C              
  61  0002              @HCCINIT .section 'data'
  61  0002              #line 61 "D:\WORK\Project\Github\etable\code\I2C\HT66F319_I2C_UART.c"
  61  0002              public _buff_i2c_tx
  61  000C              @HCCINIT0 .section 'data'
  61  000C  0013[       _buff_i2c_tx	db 19 dup(0)
            00
            ]
  61  001F              #pragma debug array 43 8 19 1
  61  001F              #pragma debug array 43 8 19 1
  61  001F              #pragma debug variable 43 1 _buff_i2c_tx "buff_i2c_tx"
  61  001F              
  61  0002              @HCCINIT .section 'data'
  61  0002              #line 61 "D:\WORK\Project\Github\etable\code\I2C\HT66F319_I2C_UART.c"
  61  0002              public _buff_i2c_rx
  61  001F              @HCCINIT0 .section 'data'
  61  001F  0010[       _buff_i2c_rx	db 16 dup(0)
            00
            ]
  61  002F              #pragma debug array 44 8 16 1
  61  002F              #pragma debug array 44 8 16 1
  61  002F              #pragma debug variable 44 1 _buff_i2c_rx "buff_i2c_rx"
  61  002F              
  61  0002              @HCCINIT .section 'data'
  61  0002              public _key_stat
  59  0002              #line 59 "D:\WORK\Project\Github\etable\code\I2C\HT66F319_I2C_UART.c"
  59  0002              @HCCINIT .section 'data'
"File: HT66F319_I2C_UART.c  Assembler  Version HGASM0202      Page 24

  59  0002              _key_stat label byte
  59  0002              #pragma debug variable 8 1 _key_stat "key_stat"
  59  0002              	db 0
  59  0001              @ROMDATA_BASE .section inpage 'code'
  59  0001              	db 0
  59  0003              @HCCINIT .section 'data'
  59  0003              public _height_str
  57  0003              #line 57 "D:\WORK\Project\Github\etable\code\I2C\HT66F319_I2C_UART.c"
  57  0003              @HCCINIT .section 'data'
  57  0003              _height_str label byte
  57  0003              #pragma debug array 45 8 3 1
  57  0003              #pragma debug array 45 8 3 1
  57  0003              #pragma debug variable 45 1 _height_str "height_str"
  57  0003              	db 046h,046h,046h
  57  0002              @ROMDATA_BASE .section inpage 'code'
  57  0002              	db 046h
  57  0002              	db 046h
  57  0003              	db 046h
  57  0006              @HCCINIT	.section 'data'
  57  0006              public _height
  56  0006              #line 56 "D:\WORK\Project\Github\etable\code\I2C\HT66F319_I2C_UART.c"
  56  0006              @HCCINIT .section 'data'
  56  0006              _height label byte
  56  0006              #pragma debug variable 10 1 _height "height"
  56  0006              	db 0
  56  0003              @ROMDATA_BASE .section inpage 'code'
  56  0003              	db 0
  56  0007              @HCCINIT .section 'data'
  56  0007              	db 0
  56  0004              @ROMDATA_BASE .section inpage 'code'
  56  0004              	db 0
  56  0008              @HCCINIT .section 'data'
  56  0008              public _led_duty
  54  0008              #line 54 "D:\WORK\Project\Github\etable\code\I2C\HT66F319_I2C_UART.c"
  54  0008              @HCCINIT .section 'data'
  54  0008              _led_duty label byte
  54  0008              #pragma debug variable 10 1 _led_duty "led_duty"
  54  0008              	dw 450
  54  0004              @ROMDATA_BASE .section inpage 'code'
  54  0004  01C2        	dc 450
  54  000A              @HCCINIT .section 'data'
  54  000A              public _led_period
  54  000A              #line 54 "D:\WORK\Project\Github\etable\code\I2C\HT66F319_I2C_UART.c"
  54  000A              @HCCINIT .section 'data'
  54  000A              _led_period label byte
  54  000A              #pragma debug variable 10 1 _led_period "led_period"
  54  000A              	dw 900
  54  0005              @ROMDATA_BASE .section inpage 'code'
  54  0005  0384        	dc 900
  54  000C              @HCCINIT .section 'data'
  54  000C              public _com
  53  000C              #line 53 "D:\WORK\Project\Github\etable\code\I2C\HT66F319_I2C_UART.c"
  53  000C              @HCCINIT .section 'data'
  53  000C              _com label byte
  53  000C              #pragma debug variable 8 1 _com "com"
  53  000C              	db 1
  53  0006              @ROMDATA_BASE .section inpage 'code'
  53  0006              	db 1
  53  000D              @HCCINIT .section 'data'
  53  000D              public _date_code
"File: HT66F319_I2C_UART.c  Assembler  Version HGASM0202      Page 25

  53  0000              @crom	.section 'crom'
  51  0000              #line 51 "D:\WORK\Project\Github\etable\code\I2C\HT66F319_I2C_UART.c"
  51  0000              @crom	.section	'crom'
  51  0000              _date_code:
  51  0000              #pragma debug array 46 7 9 1
  51  0000              #pragma debug array 46 7 9 1
  51  0000              #pragma debug variable 46 1 _date_code "date_code"
  51  0000              	db 031h,038h,031h,032h,030h,037h,030h,030h,00h
  51  0005              public _seg_7_table
  50  0005              #line 50 "D:\WORK\Project\Github\etable\code\I2C\HT66F319_I2C_UART.c"
  50  0005              @crom	.section	'crom'
  50  0005              _seg_7_table:
  50  0005              #pragma debug variable 44 1 _seg_7_table "seg_7_table"
  50  0005              	db 63
  50  0005              	db 6
  50  0006              	db 91
  50  0006              	db 79
  50  0007              	db 102
  50  0007              	db 109
  50  0008              	db 125
  50  0008              	db 7
  50  0009              	db 127
  50  0009              	db 111
  50  000A              	db 119
  50  000A              	db 124
  50  000B              	db 57
  50  000B              	db 94
  50  000C              	db 121
  50  000C              	db 113
  50  000D              #pragma debug struct_end
  50  000D              #pragma debug struct_end
  50  000D              #pragma debug union_end
  50  000D              #pragma debug union_end
  50  000D              #pragma debug variable 48 1 ___intc0 "__intc0" 1
  50  000D              #pragma debug struct_end
  50  000D              #pragma debug struct_end
  50  000D              #pragma debug union_end
  50  000D              #pragma debug union_end
  50  000D              #pragma debug variable 50 1 ___intc1 "__intc1" 1
  50  000D              #pragma debug struct_end
  50  000D              #pragma debug struct_end
  50  000D              #pragma debug union_end
  50  000D              #pragma debug union_end
  50  000D              #pragma debug variable 52 1 ___intc2 "__intc2" 1
  50  000D              #pragma debug struct_end
  50  000D              #pragma debug struct_end
  50  000D              #pragma debug union_end
  50  000D              #pragma debug union_end
  50  000D              #pragma debug variable 54 1 ___pa "__pa" 1
  50  000D              #pragma debug struct_end
  50  000D              #pragma debug struct_end
  50  000D              #pragma debug union_end
  50  000D              #pragma debug union_end
  50  000D              #pragma debug variable 56 1 ___pac "__pac" 1
  50  000D              #pragma debug struct_end
  50  000D              #pragma debug struct_end
  50  000D              #pragma debug union_end
  50  000D              #pragma debug union_end
  50  000D              #pragma debug variable 58 1 ___papu "__papu" 1
  50  000D              #pragma debug struct_end
"File: HT66F319_I2C_UART.c  Assembler  Version HGASM0202      Page 26

  50  000D              #pragma debug struct_end
  50  000D              #pragma debug union_end
  50  000D              #pragma debug union_end
  50  000D              #pragma debug variable 60 1 ___wdtc "__wdtc" 1
  50  000D              #pragma debug struct_end
  50  000D              #pragma debug struct_end
  50  000D              #pragma debug union_end
  50  000D              #pragma debug union_end
  50  000D              #pragma debug variable 62 1 ___tbc "__tbc" 1
  50  000D              #pragma debug struct_end
  50  000D              #pragma debug struct_end
  50  000D              #pragma debug union_end
  50  000D              #pragma debug union_end
  50  000D              #pragma debug variable 64 1 ___lvrc "__lvrc" 1
  50  000D              #pragma debug struct_end
  50  000D              #pragma debug struct_end
  50  000D              #pragma debug union_end
  50  000D              #pragma debug union_end
  50  000D              #pragma debug variable 66 1 ___pb "__pb" 1
  50  000D              #pragma debug struct_end
  50  000D              #pragma debug struct_end
  50  000D              #pragma debug union_end
  50  000D              #pragma debug union_end
  50  000D              #pragma debug variable 68 1 ___pbc "__pbc" 1
  50  000D              #pragma debug struct_end
  50  000D              #pragma debug struct_end
  50  000D              #pragma debug union_end
  50  000D              #pragma debug union_end
  50  000D              #pragma debug variable 70 1 ___pbpu "__pbpu" 1
  50  000D              #pragma debug struct_end
  50  000D              #pragma debug struct_end
  50  000D              #pragma debug union_end
  50  000D              #pragma debug union_end
  50  000D              #pragma debug variable 72 1 ___cpc "__cpc" 1
  50  000D              #pragma debug struct_end
  50  000D              #pragma debug struct_end
  50  000D              #pragma debug union_end
  50  000D              #pragma debug union_end
  50  000D              #pragma debug variable 74 1 ___pc "__pc" 1
  50  000D              #pragma debug struct_end
  50  000D              #pragma debug struct_end
  50  000D              #pragma debug union_end
  50  000D              #pragma debug union_end
  50  000D              #pragma debug variable 76 1 ___pcc "__pcc" 1
  50  000D              #pragma debug struct_end
  50  000D              #pragma debug struct_end
  50  000D              #pragma debug union_end
  50  000D              #pragma debug union_end
  50  000D              #pragma debug variable 78 1 ___pcpu "__pcpu" 1
  50  000D              #pragma debug struct_end
  50  000D              #pragma debug struct_end
  50  000D              #pragma debug union_end
  50  000D              #pragma debug union_end
  50  000D              #pragma debug variable 80 1 ___acerl "__acerl" 1
  50  000D              #pragma debug struct_end
  50  000D              #pragma debug struct_end
  50  000D              #pragma debug union_end
  50  000D              #pragma debug union_end
  50  000D              #pragma debug variable 82 1 ___iicc0 "__iicc0" 1
  50  000D              #pragma debug struct_end
"File: HT66F319_I2C_UART.c  Assembler  Version HGASM0202      Page 27

  50  000D              #pragma debug struct_end
  50  000D              #pragma debug union_end
  50  000D              #pragma debug union_end
  50  000D              #pragma debug variable 84 1 ___iicc1 "__iicc1" 1
  50  000D              #pragma debug struct_end
  50  000D              #pragma debug struct_end
  50  000D              #pragma debug union_end
  50  000D              #pragma debug union_end
  50  000D              #pragma debug variable 86 1 ___iicd "__iicd" 1
  50  000D              #pragma debug struct_end
  50  000D              #pragma debug struct_end
  50  000D              #pragma debug union_end
  50  000D              #pragma debug union_end
  50  000D              #pragma debug variable 88 1 ___iica "__iica" 1
  50  000D              #pragma debug struct_end
  50  000D              #pragma debug struct_end
  50  000D              #pragma debug union_end
  50  000D              #pragma debug union_end
  50  000D              #pragma debug variable 90 1 ___i2ctoc "__i2ctoc" 1
  50  000D              #pragma debug struct_end
  50  000D              #pragma debug struct_end
  50  000D              #pragma debug union_end
  50  000D              #pragma debug union_end
  50  000D              #pragma debug variable 92 1 ___sledc0 "__sledc0" 1
  50  000D              #pragma debug struct_end
  50  000D              #pragma debug struct_end
  50  000D              #pragma debug union_end
  50  000D              #pragma debug union_end
  50  000D              #pragma debug variable 94 1 ___sledc1 "__sledc1" 1
  50  000D              extern r1:byte
  50  000D              extern r2:byte
  50  000D              extern r3:byte
  50  000D              extern r4:byte
  50  000D              extern r5:byte
  50  000D              extern r6:byte
  50  000D              extern r7:byte
  82  000D              #line 82 "D:\WORK\Project\Github\etable\code\I2C\HT66F319_I2C_UART.c"
  82  0000              @code .section at 0 'code'
  82  0000  2800     R  	jmp _main_startup1
  82  0001              
  82  0001              extern _my_strcpy1_2:byte
  82  0001              extern _my_strcpy1:near
  82  0001              extern _utoa_2:byte
  82  0001              extern _utoa:near
  82  0001              extern _EE_Read_Byte:near
  82  0001              extern _EE_Write_Byte_2:byte
  82  0001              extern _EE_Write_Byte:near
  82  0001              extern _EE_Write_2:byte
  82  0001              extern _EE_Write:near
  82  0001              
  82  0001              ; 
  82  0001              ; Generated by holtek-gcc v3.18, Tue Dec 11 11:16:14 2018
  82  0001              ; Rebuild 521
  82  0001              ; end of file


        0 Errors, 0