"File: i2c_master.c  Assembler  Version HGASM0202      Page 1


   1  0000              ; Generated by holtek-gcc v3.18, Wed Dec 12 17:36:58 2018
   2  0000              ; 
   3  0000              ; Configuration:
   4  0000              ;       without long instruction
   5  0000              ;       Single ROM, Multi-RAM
   6  0000              ;       bits_per_rom_unit:16
   7  0000              ;       with mp1
   8  0000              ;       with tbhp, address(0x9)
   9  0000              ;          Use tabrd-const
  10  0000              ;       
  11  0000              ;       
  12  0000              ;       
  13  0000              ; use 'tabrdc' instead of 'tabrd'
  14  0000              ;       
  15  0000              
  16  0000              #pragma translator "holtek-gcc 4.6.4" "3.18" "build 20130711"
  17  0000              ; Rebuild 521
  18  0000              
  19  0000              ir equ [2]
  20  0000              mp equ [3]
  21  0000              sbp equ [1]
  22  0000              acc equ [5]
  23  0000              bp equ [4]
  24  0000              tblp equ [7]
  25  0000              tbhp equ [9]
  26  0000              status equ [10]
  27  0000              c equ [10].0
  28  0000              ac equ [10].1
  29  0000              z equ [10].2
  30  0000              ov equ [10].3
  31  0000              intc equ [11]
  32  0000              
  33  0000              extern ra:byte
  34  0000              extern rb:byte
  35  0000              extern rc:byte
  36  0000              extern rd:byte
  37  0000              extern re:byte
  38  0000              extern rf:byte
  39  0000              extern rg:byte
  40  0000              extern rh:byte
  41  0000              extern _Crom2Prom:near
  42  0000              extern _Crom2PromNext:near
  43  0000              
  44  0000              RAMBANK 0 @HCCINIT, @HCCINIT0
  45  0000              
  46  0000              RAMBANK 0 @BITDATASEC, @BITDATASEC1
  47  0000              @HCCINIT	.section 'data'
  48  0000              @HCCINIT0	.section 'data'
  49  0000              @BITDATASEC	 .section 'data'
  50  0000              @BITDATASEC1	 .section 'data'
  51  0000              
  52  0000              #pragma debug scope 1 1
  53  0000              	extern __DELAY3:near
  54  0000              	extern __DELAYX3:near
  55  0000              	extern __DELAYX6:near
  56  0000              	extern __DELAYY5:near
  57  0000              	extern __DELAYY3:near
  58  0000              	extern _builtin_holtek_delay_2:byte
  59  0000              ___pb equ [37]
"File: i2c_master.ASM  Assembler  Version HGASM0202      Page 2

  60  0000              ___pbpu equ [39]
  61  0000              ___pbc equ [38]
  62  0000              public _Init_I2c
  63  0000              #pragma debug scope 2 1

   4  0000              #line 4 "D:\WORK\Project\Github\etable\code\lib\i2c_master.c"
   4  0000              _Init_I2c .section 'code'
   4  0000              _Init_I2c proc
   5  0000              #line 5 "D:\WORK\Project\Github\etable\code\lib\i2c_master.c"
   5  0000  3025        	set [37].0
   5  0001  3027        	set [39].0
   5  0002  3026        	set [38].0
   6  0003              #line 6 "D:\WORK\Project\Github\etable\code\lib\i2c_master.c"
   6  0003  30A5        	set [37].1
   6  0004  30A7        	set [39].1
   6  0005  30A6        	set [38].1
   6  0006  0003        	ret
   6  0007              _Init_I2c endp
   6  0007              #line 6 "D:\WORK\Project\Github\etable\code\lib\i2c_master.c"
   6  0007              #pragma debug scope 1 1
   6  0007              public _I2c_SendStart
   6  0007              #pragma debug scope 3 1
  10  0007              #line 10 "D:\WORK\Project\Github\etable\code\lib\i2c_master.c"
  10  0000              _I2c_SendStart .section 'code'
  10  0000              _I2c_SendStart proc
  15  0000              #line 15 "D:\WORK\Project\Github\etable\code\lib\i2c_master.c"
  15  0000  3025        	set [37].0
  15  0001  3027        	set [39].0
  15  0002  3026        	set [38].0
  16  0003              #line 16 "D:\WORK\Project\Github\etable\code\lib\i2c_master.c"
  16  0003  0F01        	mov a,1
  16  0004  0080     E  	mov _Delay_2[0],a
  16  0005  1F00     E  	clr _Delay_2[1]
  16  0006  2000     E  	call _Delay
  17  0007              #line 17 "D:\WORK\Project\Github\etable\code\lib\i2c_master.c"
  17  0007  30A5        	set [37].1
  17  0008  30A7        	set [39].1
  17  0009  30A6        	set [38].1
  18  000A              #line 18 "D:\WORK\Project\Github\etable\code\lib\i2c_master.c"
  18  000A  0F01        	mov a,1
  18  000B  0080     E  	mov _Delay_2[0],a
  18  000C  1F00     E  	clr _Delay_2[1]
  18  000D  2000     E  	call _Delay
  19  000E              #line 19 "D:\WORK\Project\Github\etable\code\lib\i2c_master.c"
  19  000E  34A5        	clr [37].1
  19  000F  34A7        	clr [39].1
  19  0010  34A6        	clr [38].1
  20  0011              #line 20 "D:\WORK\Project\Github\etable\code\lib\i2c_master.c"
  20  0011  0F01        	mov a,1
  20  0012  0080     E  	mov _Delay_2[0],a
  20  0013  1F00     E  	clr _Delay_2[1]
  20  0014  2000     E  	call _Delay
  21  0015              #line 21 "D:\WORK\Project\Github\etable\code\lib\i2c_master.c"
  21  0015  0F01        	mov a,1
  21  0016  0080     E  	mov _Delay_2[0],a
  21  0017  1F00     E  	clr _Delay_2[1]
  21  0018  2000     E  	call _Delay
  22  0019              #line 22 "D:\WORK\Project\Github\etable\code\lib\i2c_master.c"
  22  0019  3425        	clr [37].0
  22  001A  3427        	clr [39].0
"File: i2c_master.c  Assembler  Version HGASM0202      Page 3

  22  001B  3426        	clr [38].0
  23  001C              #line 23 "D:\WORK\Project\Github\etable\code\lib\i2c_master.c"
  23  001C  0F01        	mov a,1
  23  001D  0080     E  	mov _Delay_2[0],a
  23  001E  1F00     E  	clr _Delay_2[1]
  23  001F  2000     E  	call _Delay
  23  0020  0003        	ret
  23  0021              _I2c_SendStart endp
  23  0021              #line 23 "D:\WORK\Project\Github\etable\code\lib\i2c_master.c"
  23  0021              #pragma debug scope 1 1
  23  0021              public _I2c_SendStop
  23  0021              #pragma debug scope 4 1
  27  0021              #line 27 "D:\WORK\Project\Github\etable\code\lib\i2c_master.c"
  27  0000              _I2c_SendStop .section 'code'
  27  0000              _I2c_SendStop proc
  29  0000              #line 29 "D:\WORK\Project\Github\etable\code\lib\i2c_master.c"
  29  0000  3425        	clr [37].0
  29  0001  3427        	clr [39].0
  29  0002  3426        	clr [38].0
  30  0003              #line 30 "D:\WORK\Project\Github\etable\code\lib\i2c_master.c"
  30  0003  34A5        	clr [37].1
  30  0004  34A7        	clr [39].1
  30  0005  34A6        	clr [38].1
  31  0006              #line 31 "D:\WORK\Project\Github\etable\code\lib\i2c_master.c"
  31  0006  0F01        	mov a,1
  31  0007  0080     E  	mov _Delay_2[0],a
  31  0008  1F00     E  	clr _Delay_2[1]
  31  0009  2000     E  	call _Delay
  32  000A              #line 32 "D:\WORK\Project\Github\etable\code\lib\i2c_master.c"
  32  000A  3025        	set [37].0
  32  000B  3027        	set [39].0
  32  000C  3026        	set [38].0
  33  000D              #line 33 "D:\WORK\Project\Github\etable\code\lib\i2c_master.c"
  33  000D  0F01        	mov a,1
  33  000E  0080     E  	mov _Delay_2[0],a
  33  000F  1F00     E  	clr _Delay_2[1]
  33  0010  2000     E  	call _Delay
  34  0011              #line 34 "D:\WORK\Project\Github\etable\code\lib\i2c_master.c"
  34  0011  30A5        	set [37].1
  34  0012  30A7        	set [39].1
  34  0013  30A6        	set [38].1
  35  0014              #line 35 "D:\WORK\Project\Github\etable\code\lib\i2c_master.c"
  35  0014  0F01        	mov a,1
  35  0015  0080     E  	mov _Delay_2[0],a
  35  0016  1F00     E  	clr _Delay_2[1]
  35  0017  2000     E  	call _Delay
  35  0018  0003        	ret
  35  0019              _I2c_SendStop endp
  35  0019              #line 35 "D:\WORK\Project\Github\etable\code\lib\i2c_master.c"
  35  0019              #pragma debug scope 1 1
  35  0019              public _Wait_Ack
  35  0019              #pragma debug scope 5 1
  39  0019              #line 39 "D:\WORK\Project\Github\etable\code\lib\i2c_master.c"
  39  0000              _Wait_Ack .section 'code'
  39  0000              _Wait_Ack proc
  41  0000              #line 41 "D:\WORK\Project\Github\etable\code\lib\i2c_master.c"
  41  0000  30A5        	set [37].1
  41  0001  30A7        	set [39].1
  41  0002  30A6        	set [38].1
  41  0003  0F01        	mov a,1
"File: i2c_master.c  Assembler  Version HGASM0202      Page 4

  41  0004  0080     E  	mov _Delay_2[0],a
  41  0005  1F00     E  	clr _Delay_2[1]
  41  0006  2000     E  	call _Delay
  42  0007              #line 42 "D:\WORK\Project\Github\etable\code\lib\i2c_master.c"
  42  0007  3025        	set [37].0
  42  0008  3027        	set [39].0
  42  0009  3026        	set [38].0
  42  000A  0F01        	mov a,1
  42  000B  0080     E  	mov _Delay_2[0],a
  42  000C  1F00     E  	clr _Delay_2[1]
  42  000D  2000     E  	call _Delay
  43  000E              #line 43 "D:\WORK\Project\Github\etable\code\lib\i2c_master.c"
  43  000E  1F00     E  	clr rb
  43  000F  0F04        	mov a,4
  43  0010  0080     E  	mov rc,a
  43  0011              _L5:
  43  0011              #line 43 "D:\WORK\Project\Github\etable\code\lib\i2c_master.c"
  43  0011  38A5        	snz [37].1
  43  0012  2800     R  	jmp _L10
  43  0013  0FFF        	mov a,255
  43  0014  0380     E  	addm a,rb
  43  0015  0FFF        	mov a,255
  43  0016  1380     E  	adcm a,rc
  45  0017              #line 45 "D:\WORK\Project\Github\etable\code\lib\i2c_master.c"
  45  0017  0700     E  	mov a,rb
  45  0018  0500     E  	or a,rc
  45  0019  390A        	snz z
  45  001A  2800     R  	jmp _L5
  47  001B              #line 47 "D:\WORK\Project\Github\etable\code\lib\i2c_master.c"
  47  001B  2000     R  	call _I2c_SendStop
  48  001C              #line 48 "D:\WORK\Project\Github\etable\code\lib\i2c_master.c"
  48  001C  1F00     E  	clr ra
  48  001D  2800     R  	jmp _L7
  48  001E              _L10:
  51  001E              #line 51 "D:\WORK\Project\Github\etable\code\lib\i2c_master.c"
  51  001E  3425        	clr [37].0
  51  001F  3427        	clr [39].0
  51  0020  3426        	clr [38].0
  52  0021              #line 52 "D:\WORK\Project\Github\etable\code\lib\i2c_master.c"
  52  0021  0F01        	mov a,1
  52  0022  0080     E  	mov ra,a
  52  0023              _L7:
  53  0023              #line 53 "D:\WORK\Project\Github\etable\code\lib\i2c_master.c"
  53  0023  0700     E  	mov a,ra
  53  0024  0003        	ret
  53  0025              _Wait_Ack endp
  53  0025              #line 53 "D:\WORK\Project\Github\etable\code\lib\i2c_master.c"
  53  0025              #pragma debug scope 1 1
  53  0025              public _I2c_SendByte
  53  0025              #pragma debug scope 6 1
  74  0025              #line 74 "D:\WORK\Project\Github\etable\code\lib\i2c_master.c"
  74  0000              _I2c_SendByte .section 'code'
  74  0000              _I2c_SendByte proc
  74  0000  0002[           local _I2c_SendByte_2 db 2 dup(?)	; 0,2
            00
            ]
  74  0000  0080     R  	mov _I2c_SendByte_2[0],a
  74  0001              #pragma debug variable 8 6 _I2c_SendByte_2+0 "bt"
  74  0001  0F08        	mov a,8
  74  0002  0080     R  	mov _I2c_SendByte_2[1],a
"File: i2c_master.c  Assembler  Version HGASM0202      Page 5

  74  0003              _L15:
  79  0003              #line 79 "D:\WORK\Project\Github\etable\code\lib\i2c_master.c"
  79  0003  3800     R  	snz _I2c_SendByte_2[0].7
  79  0004  2800     R  	jmp _L12
  81  0005              #line 81 "D:\WORK\Project\Github\etable\code\lib\i2c_master.c"
  81  0005  30A5        	set [37].1
  81  0006  30A7        	set [39].1
  81  0007  30A6        	set [38].1
  81  0008  2800     R  	jmp _L13
  81  0009              _L12:
  84  0009              #line 84 "D:\WORK\Project\Github\etable\code\lib\i2c_master.c"
  84  0009  34A5        	clr [37].1
  84  000A  34A7        	clr [39].1
  84  000B  34A6        	clr [38].1
  84  000C              _L13:
  85  000C              #line 85 "D:\WORK\Project\Github\etable\code\lib\i2c_master.c"
  85  000C  0F01        	mov a,1
  85  000D  0080     E  	mov _Delay_2[0],a
  85  000E  1F00     E  	clr _Delay_2[1]
  85  000F  2000     E  	call _Delay
  86  0010              #line 86 "D:\WORK\Project\Github\etable\code\lib\i2c_master.c"
  86  0010  3025        	set [37].0
  86  0011  3027        	set [39].0
  86  0012  3026        	set [38].0
  87  0013              #line 87 "D:\WORK\Project\Github\etable\code\lib\i2c_master.c"
  87  0013  0F01        	mov a,1
  87  0014  0080     E  	mov _Delay_2[0],a
  87  0015  1F00     E  	clr _Delay_2[1]
  87  0016  2000     E  	call _Delay
  88  0017              #line 88 "D:\WORK\Project\Github\etable\code\lib\i2c_master.c"
  88  0017  3425        	clr [37].0
  88  0018  3427        	clr [39].0
  88  0019  3426        	clr [38].0
  89  001A              #line 89 "D:\WORK\Project\Github\etable\code\lib\i2c_master.c"
  89  001A  0700     R  	mov a,_I2c_SendByte_2[0]
  89  001B  0380     R  	addm a,_I2c_SendByte_2[0]
  90  001C              #line 90 "D:\WORK\Project\Github\etable\code\lib\i2c_master.c"
  90  001C              ;# 90 "D:\WORK\Project\Github\etable\code\lib\i2c_master.c" 1
  90  001C  0001        	clr wdt
  90  001D  1780     R  	sdz _I2c_SendByte_2[1]
  90  001E  2800     R  	jmp _L15
  93  001F              #line 93 "D:\WORK\Project\Github\etable\code\lib\i2c_master.c"
  93  001F  2000     R  	call _Wait_Ack
  93  0020  0080     E  	mov ra,a
  94  0021              #line 94 "D:\WORK\Project\Github\etable\code\lib\i2c_master.c"
  94  0021  0700     E  	mov a,ra
  94  0022  0003        	ret
  94  0023              _I2c_SendByte endp
  94  0023              #line 94 "D:\WORK\Project\Github\etable\code\lib\i2c_master.c"
  94  0023              #pragma debug scope 1 1
  94  0023              ___intc0 equ [14]
  94  0023              public _I2c_Write
  94  0023              #pragma debug scope 7 1
  97  0023              #line 97 "D:\WORK\Project\Github\etable\code\lib\i2c_master.c"
  97  0000              _I2c_Write .section 'code'
  97  0000              _I2c_Write proc
  97  0000              public _I2c_Write_2
  97  0000  0006[           local _I2c_Write_2 db 6 dup(?)	; 4,2
            00
            ]
"File: i2c_master.c  Assembler  Version HGASM0202      Page 6

  97  0000  0080     R  	mov _I2c_Write_2[4],a
  97  0001              #pragma debug variable 8 7 _I2c_Write_2+4 "i2c_addr"
  97  0001              #pragma debug variable 8 7 _I2c_Write_2+0 "reg_addr"
  97  0001              #pragma debug variable 8 7 _I2c_Write_2+1 "len"
  97  0001              #pragma debug pointer 42 8 7
  97  0001              #pragma debug pointer 42 8 7
  97  0001              #pragma debug variable 42 7 _I2c_Write_2+2 "buff"
  97  0001              #pragma debug variable 8 7 _I2c_Write_2+5 "i"
 101  0001              #line 101 "D:\WORK\Project\Github\etable\code\lib\i2c_master.c"
 101  0001  300E        	set [14].0
 102  0002              #line 102 "D:\WORK\Project\Github\etable\code\lib\i2c_master.c"
 102  0002  2000     R  	call _I2c_SendStart
 103  0003              #line 103 "D:\WORK\Project\Github\etable\code\lib\i2c_master.c"
 103  0003  0700     R  	mov a,_I2c_Write_2[4]
 103  0004  0300     R  	add a,_I2c_Write_2[4]
 103  0005  0080     E  	mov ra,a
 103  0006  0700     E  	mov a,ra
 103  0007  2000     R  	call _I2c_SendByte
 103  0008  0080     E  	mov ra,a
 103  0009  1080     E  	sz ra
 103  000A  2800     R  	jmp _LI1
 103  000B  2800     R  	jmp _L19
 103  000C              _LI1:
 109  000C              #line 109 "D:\WORK\Project\Github\etable\code\lib\i2c_master.c"
 109  000C  0700     R  	mov a,_I2c_Write_2[0]
 109  000D  2000     R  	call _I2c_SendByte
 109  000E  0080     E  	mov ra,a
 109  000F  1080     E  	sz ra
 109  0010  2800     R  	jmp _LI2
 109  0011  2800     R  	jmp _L19
 109  0012              _LI2:
 109  0012  1F00     R  	clr _I2c_Write_2[5]
 109  0013  2800     R  	jmp _L20
 109  0014              _L19:
 111  0014              #line 111 "D:\WORK\Project\Github\etable\code\lib\i2c_master.c"
 111  0014  300E        	set [14].0
 112  0015              #line 112 "D:\WORK\Project\Github\etable\code\lib\i2c_master.c"
 112  0015  2800     R  	jmp _L18
 112  0016              _L21:
 116  0016              #line 116 "D:\WORK\Project\Github\etable\code\lib\i2c_master.c"
 116  0016  0700     R  	mov a,_I2c_Write_2[5]
 116  0017  0300     R  	add a,_I2c_Write_2[2]
 116  0018  0083        	mov mp,a
 116  0019  1F05        	clr acc
 116  001A  1300     R  	adc a,_I2c_Write_2[3]
 116  001B  0081        	mov sbp,a
 116  001C  2000     E  	call _Crom2Prom
 116  001D  2000     R  	call _I2c_SendByte
 116  001E  0080     E  	mov ra,a
 116  001F  1080     E  	sz ra
 116  0020  2800     R  	jmp _LI3
 116  0021  2800     R  	jmp _L18
 116  0022              _LI3:
 114  0022              #line 114 "D:\WORK\Project\Github\etable\code\lib\i2c_master.c"
 114  0022  1480     R  	inc _I2c_Write_2[5]
 114  0023              _L20:
 114  0023  0700     R  	mov a,_I2c_Write_2[5]
 114  0024  0200     R  	sub a,_I2c_Write_2[1]
 114  0025  380A        	snz c
 114  0026  2800     R  	jmp _L21
"File: i2c_master.c  Assembler  Version HGASM0202      Page 7

 119  0027              #line 119 "D:\WORK\Project\Github\etable\code\lib\i2c_master.c"
 119  0027  2000     R  	call _I2c_SendStop
 120  0028              #line 120 "D:\WORK\Project\Github\etable\code\lib\i2c_master.c"
 120  0028  300E        	set [14].0
 121  0029              #line 121 "D:\WORK\Project\Github\etable\code\lib\i2c_master.c"
 121  0029  0F01        	mov a,1
 121  002A  0080     E  	mov ra,a
 121  002B              _L18:
 122  002B              #line 122 "D:\WORK\Project\Github\etable\code\lib\i2c_master.c"
 122  002B  0700     E  	mov a,ra
 122  002C  0003        	ret
 122  002D              _I2c_Write endp
 122  002D              #line 122 "D:\WORK\Project\Github\etable\code\lib\i2c_master.c"
 122  002D              #pragma debug scope 1 1
 122  002D              public _I2c_ReadByte
 122  002D              #pragma debug scope 8 1
 125  002D              #line 125 "D:\WORK\Project\Github\etable\code\lib\i2c_master.c"
 125  0000              _I2c_ReadByte .section 'code'
 125  0000              _I2c_ReadByte proc
 125  0000  0003[           local _I2c_ReadByte_2 db 3 dup(?)	; 0,3
            00
            ]
 125  0000  0080     R  	mov _I2c_ReadByte_2[0],a
 125  0001              #pragma debug variable 8 8 _I2c_ReadByte_2+0 "ack"
 125  0001              #pragma debug variable 8 8 _I2c_ReadByte_2+1 "u8temp"
 128  0001              #line 128 "D:\WORK\Project\Github\etable\code\lib\i2c_master.c"
 128  0001  30A5        	set [37].1
 128  0002  30A7        	set [39].1
 128  0003  30A6        	set [38].1
 128  0004  0F08        	mov a,8
 128  0005  0080     R  	mov _I2c_ReadByte_2[2],a
 126  0006              #line 126 "D:\WORK\Project\Github\etable\code\lib\i2c_master.c"
 126  0006  1F00     R  	clr _I2c_ReadByte_2[1]
 126  0007              _L28:
 132  0007              #line 132 "D:\WORK\Project\Github\etable\code\lib\i2c_master.c"
 132  0007  3025        	set [37].0
 132  0008  3027        	set [39].0
 132  0009  3026        	set [38].0
 133  000A              #line 133 "D:\WORK\Project\Github\etable\code\lib\i2c_master.c"
 133  000A  0700     R  	mov a,_I2c_ReadByte_2[1]
 133  000B  0380     R  	addm a,_I2c_ReadByte_2[1]
 134  000C              #line 134 "D:\WORK\Project\Github\etable\code\lib\i2c_master.c"
 134  000C  38A5        	snz [37].1
 134  000D  2800     R  	jmp _L26
 135  000E              #line 135 "D:\WORK\Project\Github\etable\code\lib\i2c_master.c"
 135  000E  3000     R  	set _I2c_ReadByte_2[1].0
 135  000F              _L26:
 136  000F              #line 136 "D:\WORK\Project\Github\etable\code\lib\i2c_master.c"
 136  000F  3425        	clr [37].0
 136  0010  3427        	clr [39].0
 136  0011  3426        	clr [38].0
 136  0012  0F01        	mov a,1
 136  0013  0080     E  	mov _Delay_2[0],a
 136  0014  1F00     E  	clr _Delay_2[1]
 136  0015  2000     E  	call _Delay
 136  0016  1780     R  	sdz _I2c_ReadByte_2[2]
 136  0017  2800     R  	jmp _L28
 139  0018              #line 139 "D:\WORK\Project\Github\etable\code\lib\i2c_master.c"
 139  0018  1080     R  	sz _I2c_ReadByte_2[0]
 139  0019  2800     R  	jmp _LI4
"File: i2c_master.c  Assembler  Version HGASM0202      Page 8

 139  001A  2800     R  	jmp _L29
 139  001B              _LI4:
 139  001B  34A5        	clr [37].1
 139  001C  34A7        	clr [39].1
 139  001D  34A6        	clr [38].1
 139  001E              _L29:
 140  001E              #line 140 "D:\WORK\Project\Github\etable\code\lib\i2c_master.c"
 140  001E  3025        	set [37].0
 140  001F  3027        	set [39].0
 140  0020  3026        	set [38].0
 140  0021  0F01        	mov a,1
 140  0022  0080     E  	mov _Delay_2[0],a
 140  0023  1F00     E  	clr _Delay_2[1]
 140  0024  2000     E  	call _Delay
 141  0025              #line 141 "D:\WORK\Project\Github\etable\code\lib\i2c_master.c"
 141  0025  3425        	clr [37].0
 141  0026  3427        	clr [39].0
 141  0027  3426        	clr [38].0
 141  0028  0F01        	mov a,1
 141  0029  0080     E  	mov _Delay_2[0],a
 141  002A  1F00     E  	clr _Delay_2[1]
 141  002B  2000     E  	call _Delay
 142  002C              #line 142 "D:\WORK\Project\Github\etable\code\lib\i2c_master.c"
 142  002C  30A5        	set [37].1
 142  002D  30A7        	set [39].1
 142  002E  30A6        	set [38].1
 144  002F              #line 144 "D:\WORK\Project\Github\etable\code\lib\i2c_master.c"
 144  002F  0700     R  	mov a,_I2c_ReadByte_2[1]
 144  0030  0003        	ret
 144  0031              _I2c_ReadByte endp
 144  0031              #line 144 "D:\WORK\Project\Github\etable\code\lib\i2c_master.c"
 144  0031              #pragma debug scope 1 1
 144  0031              public _I2c_Read
 144  0031              #pragma debug scope 9 1
 150  0031              #line 150 "D:\WORK\Project\Github\etable\code\lib\i2c_master.c"
 150  0000              _I2c_Read .section 'code'
 150  0000              _I2c_Read proc
 150  0000              public _I2c_Read_2
 150  0000  0008[           local _I2c_Read_2 db 8 dup(?)	; 5,3
            00
            ]
 150  0000  0080     R  	mov _I2c_Read_2[5],a
 150  0001              #pragma debug variable 8 9 _I2c_Read_2+5 "mode"
 150  0001              #pragma debug variable 8 9 _I2c_Read_2+0 "i2c_addr"
 150  0001              #pragma debug variable 8 9 _I2c_Read_2+1 "reg_addr"
 150  0001              #pragma debug variable 8 9 _I2c_Read_2+2 "len"
 150  0001              #pragma debug pointer 43 8 9
 150  0001              #pragma debug pointer 43 8 9
 150  0001              #pragma debug variable 43 9 _I2c_Read_2+3 "buff"
 151  0001              #line 151 "D:\WORK\Project\Github\etable\code\lib\i2c_master.c"
 151  0001  300E        	set [14].0
 152  0002              #line 152 "D:\WORK\Project\Github\etable\code\lib\i2c_master.c"
 152  0002  1080     R  	sz _I2c_Read_2[5]
 152  0003  2800     R  	jmp _LI5
 152  0004  2800     R  	jmp _L34
 152  0005              _LI5:
 155  0005              #line 155 "D:\WORK\Project\Github\etable\code\lib\i2c_master.c"
 155  0005  2000     R  	call _I2c_SendStart
 156  0006              #line 156 "D:\WORK\Project\Github\etable\code\lib\i2c_master.c"
 156  0006  0700     R  	mov a,_I2c_Read_2[0]
"File: i2c_master.c  Assembler  Version HGASM0202      Page 9

 156  0007  0300     R  	add a,_I2c_Read_2[0]
 156  0008  0080     E  	mov ra,a
 156  0009  0700     E  	mov a,ra
 156  000A  2000     R  	call _I2c_SendByte
 156  000B  0080     E  	mov ra,a
 156  000C  1080     E  	sz ra
 156  000D  2800     R  	jmp _LI6
 156  000E  2800     R  	jmp _L37
 156  000F              _LI6:
 162  000F              #line 162 "D:\WORK\Project\Github\etable\code\lib\i2c_master.c"
 162  000F  0700     R  	mov a,_I2c_Read_2[1]
 162  0010  0080     E  	mov ra,a
 162  0011  0700     E  	mov a,ra
 162  0012  2000     R  	call _I2c_SendByte
 162  0013  0080     E  	mov ra,a
 162  0014  1080     E  	sz ra
 162  0015  2800     R  	jmp _LI7
 162  0016  2800     R  	jmp _L37
 162  0017              _LI7:
 162  0017              _L34:
 169  0017              #line 169 "D:\WORK\Project\Github\etable\code\lib\i2c_master.c"
 169  0017  2000     R  	call _I2c_SendStart
 170  0018              #line 170 "D:\WORK\Project\Github\etable\code\lib\i2c_master.c"
 170  0018  0700     R  	mov a,_I2c_Read_2[0]
 170  0019  0300     R  	add a,_I2c_Read_2[0]
 170  001A  0080     E  	mov ra,a
 170  001B  3000     E  	set ra.0
 170  001C  0700     E  	mov a,ra
 170  001D  2000     R  	call _I2c_SendByte
 170  001E  0080     E  	mov ra,a
 170  001F  1080     E  	sz ra
 170  0020  2800     R  	jmp _LI8
 170  0021  2800     R  	jmp _L37
 170  0022              _LI8:
 170  0022  0700     R  	mov a,_I2c_Read_2[3]
 170  0023  0080     R  	mov _I2c_Read_2[6],a
 170  0024  0700     R  	mov a,_I2c_Read_2[4]
 170  0025  0080     R  	mov _I2c_Read_2[7],a
 170  0026  2800     R  	jmp _L38
 170  0027              _L37:
 172  0027              #line 172 "D:\WORK\Project\Github\etable\code\lib\i2c_master.c"
 172  0027  300E        	set [14].0
 173  0028              #line 173 "D:\WORK\Project\Github\etable\code\lib\i2c_master.c"
 173  0028  2800     R  	jmp _L36
 173  0029              _L38:
 177  0029              #line 177 "D:\WORK\Project\Github\etable\code\lib\i2c_master.c"
 177  0029  0F01        	mov a,1
 177  002A  0200     R  	sub a,_I2c_Read_2[2]
 177  002B  3C0A        	sz c
 177  002C  2800     R  	jmp _L41
 179  002D              #line 179 "D:\WORK\Project\Github\etable\code\lib\i2c_master.c"
 179  002D  0F01        	mov a,1
 179  002E  2000     R  	call _I2c_ReadByte
 179  002F  0080     E  	mov ra,a
 179  0030  0700     R  	mov a,_I2c_Read_2[6]
 179  0031  0083        	mov mp,a
 179  0032  0700     R  	mov a,_I2c_Read_2[7]
 179  0033  0081        	mov sbp,a
 179  0034  0701        	mov a,sbp
 179  0035  0084        	mov bp,a
"File: i2c_master.c  Assembler  Version HGASM0202      Page 10

 179  0036  0700     E  	mov a,ra
 179  0037  0082        	mov ir,a
 177  0038              #line 177 "D:\WORK\Project\Github\etable\code\lib\i2c_master.c"
 177  0038  1580     R  	dec _I2c_Read_2[2]
 177  0039  1480     R  	inc _I2c_Read_2[6]
 177  003A  3D0A        	sz z
 177  003B  1480     R  	inc _I2c_Read_2[7]
 177  003C  2800     R  	jmp _L38
 177  003D              _L41:
 182  003D              #line 182 "D:\WORK\Project\Github\etable\code\lib\i2c_master.c"
 182  003D  0F00        	mov a,0
 182  003E  2000     R  	call _I2c_ReadByte
 182  003F  0080     E  	mov ra,a
 182  0040  0700     R  	mov a,_I2c_Read_2[6]
 182  0041  0083        	mov mp,a
 182  0042  0700     R  	mov a,_I2c_Read_2[7]
 182  0043  0081        	mov sbp,a
 182  0044  0701        	mov a,sbp
 182  0045  0084        	mov bp,a
 182  0046  0700     E  	mov a,ra
 182  0047  0082        	mov ir,a
 183  0048              #line 183 "D:\WORK\Project\Github\etable\code\lib\i2c_master.c"
 183  0048  2000     R  	call _I2c_SendStop
 184  0049              #line 184 "D:\WORK\Project\Github\etable\code\lib\i2c_master.c"
 184  0049  0F01        	mov a,1
 184  004A  0080     E  	mov _Delay_2[0],a
 184  004B  1F00     E  	clr _Delay_2[1]
 184  004C  2000     E  	call _Delay
 185  004D              #line 185 "D:\WORK\Project\Github\etable\code\lib\i2c_master.c"
 185  004D  300E        	set [14].0
 186  004E              #line 186 "D:\WORK\Project\Github\etable\code\lib\i2c_master.c"
 186  004E  0F01        	mov a,1
 186  004F  0080     E  	mov ra,a
 186  0050              _L36:
 187  0050              #line 187 "D:\WORK\Project\Github\etable\code\lib\i2c_master.c"
 187  0050  0700     E  	mov a,ra
 187  0051  0003        	ret
 187  0052              _I2c_Read endp
 187  0052              #line 187 "D:\WORK\Project\Github\etable\code\lib\i2c_master.c"
 187  0052              #pragma debug scope 1 1
 187  0052              #pragma debug struct_end
 187  0052              #pragma debug struct_end
 187  0052              #pragma debug union_end
 187  0052              #pragma debug union_end
 187  0052              #pragma debug variable 45 1 ___intc0 "__intc0" 1
 187  0052              #pragma debug struct_end
 187  0052              #pragma debug struct_end
 187  0052              #pragma debug union_end
 187  0052              #pragma debug union_end
 187  0052              #pragma debug variable 47 1 ___pb "__pb" 1
 187  0052              #pragma debug struct_end
 187  0052              #pragma debug struct_end
 187  0052              #pragma debug union_end
 187  0052              #pragma debug union_end
 187  0052              #pragma debug variable 49 1 ___pbc "__pbc" 1
 187  0052              #pragma debug struct_end
 187  0052              #pragma debug struct_end
 187  0052              #pragma debug union_end
 187  0052              #pragma debug union_end
 187  0052              #pragma debug variable 51 1 ___pbpu "__pbpu" 1
"File: i2c_master.c  Assembler  Version HGASM0202      Page 11

 187  0052              extern _Delay_2:byte
 187  0052              extern _Delay:near
 187  0052              
 187  0052              ; 
 187  0052              ; Generated by holtek-gcc v3.18, Wed Dec 12 17:36:58 2018
 187  0052              ; Rebuild 521
 187  0052              ; end of file


        0 Errors, 0