"File: my_fun.c      Assembler  Version HGASM0202      Page 1


   1  0000              ; Generated by holtek-gcc v3.18, Tue Dec 11 11:16:14 2018
   2  0000              ; 
   3  0000              ; Configuration:
   4  0000              ;       without long instruction
   5  0000              ;       Single ROM, Multi-RAM
   6  0000              ;       bits_per_rom_unit:16
   7  0000              ;       with mp1
   8  0000              ;       with tbhp, address(0x9)
   9  0000              ;          Use tabrd-const
  10  0000              ;       
  11  0000              ;       
  12  0000              ;       
  13  0000              ; use 'tabrdc' instead of 'tabrd'
  14  0000              ;       
  15  0000              
  16  0000              #pragma translator "holtek-gcc 4.6.4" "3.18" "build 20130711"
  17  0000              ; Rebuild 521
  18  0000              
  19  0000              ir equ [2]
  20  0000              mp equ [3]
  21  0000              sbp equ [1]
  22  0000              acc equ [5]
  23  0000              bp equ [4]
  24  0000              tblp equ [7]
  25  0000              tbhp equ [9]
  26  0000              status equ [10]
  27  0000              c equ [10].0
  28  0000              ac equ [10].1
  29  0000              z equ [10].2
  30  0000              ov equ [10].3
  31  0000              intc equ [11]
  32  0000              
  33  0000              extern ra:byte
  34  0000              extern rb:byte
  35  0000              extern rc:byte
  36  0000              extern rd:byte
  37  0000              extern re:byte
  38  0000              extern rf:byte
  39  0000              extern rg:byte
  40  0000              extern rh:byte
  41  0000              extern _Crom2Prom:near
  42  0000              extern _Crom2PromNext:near
  43  0000              
  44  0000              RAMBANK 0 @HCCINIT, @HCCINIT0
  45  0000              
  46  0000              RAMBANK 0 @BITDATASEC, @BITDATASEC1
  47  0000              @HCCINIT	.section 'data'
  48  0000              @HCCINIT0	.section 'data'
  49  0000              @BITDATASEC	 .section 'data'
  50  0000              @BITDATASEC1	 .section 'data'
  51  0000              
  52  0000              #pragma debug scope 1 1
  53  0000              	extern __DELAY3:near
  54  0000              	extern __DELAYX3:near
  55  0000              	extern __DELAYX6:near
  56  0000              	extern __DELAYY5:near
  57  0000              	extern __DELAYY3:near
  58  0000              	extern _builtin_holtek_delay_2:byte
  59  0000              public _Delay
"File: my_fun.ASM    Assembler  Version HGASM0202      Page 2

  60  0000              #pragma debug scope 2 1

  11  0000              #line 11 "D:\WORK\Project\Github\etable\code\lib\my_fun.c"
  11  0000              _Delay .section 'code'
  11  0000              _Delay proc
  11  0000              public _Delay_2
  11  0000  0004[           local _Delay_2 db 4 dup(?)	; 2,2
            00
            ]
  11  0004              #pragma debug variable 10 2 _Delay_2+0 "count"
  11  0004              #pragma debug variable 10 2 _Delay_2+2 "i"
  13  0004              #line 13 "D:\WORK\Project\Github\etable\code\lib\my_fun.c"
  13  0000  1F00     R  	clr _Delay_2[2]
  13  0001  1F00     R  	clr _Delay_2[3]
  13  0002  2800     R  	jmp _L2
  13  0003              _L3:
  15  0003              #line 15 "D:\WORK\Project\Github\etable\code\lib\my_fun.c"
  15  0003              ;# 15 "D:\WORK\Project\Github\etable\code\lib\my_fun.c" 1
  15  0003  0001        	clr wdt
  13  0004              #line 13 "D:\WORK\Project\Github\etable\code\lib\my_fun.c"
  13  0004  1480     R  	inc _Delay_2[2]
  13  0005  3D0A        	sz z
  13  0006  1480     R  	inc _Delay_2[3]
  13  0007              _L2:
  13  0007  0700     R  	mov a,_Delay_2[2]
  13  0008  0200     R  	sub a,_Delay_2[0]
  13  0009  0700     R  	mov a,_Delay_2[3]
  13  000A  1200     R  	sbc a,_Delay_2[1]
  13  000B  380A        	snz c
  13  000C  2800     R  	jmp _L3
  13  000D  0003        	ret
  13  000E              _Delay endp
  13  000E              #line 13 "D:\WORK\Project\Github\etable\code\lib\my_fun.c"
  13  000E              #pragma debug scope 1 1
  13  000E              public _my_strcpy
  13  000E              #pragma debug scope 3 1
  21  000E              #line 21 "D:\WORK\Project\Github\etable\code\lib\my_fun.c"
  21  0000              _my_strcpy .section 'code'
  21  0000              _my_strcpy proc
  21  0000              public _my_strcpy_2
  21  0000  0004[           local _my_strcpy_2 db 4 dup(?)	; 4,0
            00
            ]
  21  0004              #pragma debug pointer 42 8 3
  21  0004              #pragma debug pointer 42 8 3
  21  0004              #pragma debug variable 42 3 _my_strcpy_2+0 "dest"
  21  0004              #pragma debug pointer 43 7 3
  21  0004              #pragma debug pointer 43 7 3
  21  0004              #pragma debug variable 43 3 _my_strcpy_2+2 "source"
  22  0004              #line 22 "D:\WORK\Project\Github\etable\code\lib\my_fun.c"
  22  0000  1F00     E  	clr rb
  22  0001  1F00     E  	clr rc
  22  0002              _L6:
  23  0002              #line 23 "D:\WORK\Project\Github\etable\code\lib\my_fun.c"
  23  0002  0700     E  	mov a,rb
  23  0003  0300     R  	add a,_my_strcpy_2[2]
  23  0004  0083        	mov mp,a
  23  0005  0700     E  	mov a,rc
  23  0006  1300     R  	adc a,_my_strcpy_2[3]
  23  0007  0081        	mov sbp,a
"File: my_fun.c      Assembler  Version HGASM0202      Page 3

  23  0008  2000     E  	call _Crom2Prom
  23  0009  0080     E  	mov ra,a
  23  000A  1080     E  	sz ra
  23  000B  2800     R  	jmp _LI1
  23  000C  2800     R  	jmp _L7
  23  000D              _LI1:
  25  000D              #line 25 "D:\WORK\Project\Github\etable\code\lib\my_fun.c"
  25  000D  0700     E  	mov a,rb
  25  000E  0300     R  	add a,_my_strcpy_2[0]
  25  000F  0083        	mov mp,a
  25  0010  0700     E  	mov a,rc
  25  0011  1300     R  	adc a,_my_strcpy_2[1]
  25  0012  0081        	mov sbp,a
  25  0013  0701        	mov a,sbp
  25  0014  0084        	mov bp,a
  25  0015  0700     E  	mov a,ra
  25  0016  0082        	mov ir,a
  26  0017              #line 26 "D:\WORK\Project\Github\etable\code\lib\my_fun.c"
  26  0017  0700     E  	mov a,rb
  26  0018  0C21        	xor a,33
  26  0019  0500     E  	or a,rc
  26  001A  3D0A        	sz z
  26  001B  2800     R  	jmp _L7
  29  001C              #line 29 "D:\WORK\Project\Github\etable\code\lib\my_fun.c"
  29  001C  1480     E  	inc rb
  29  001D  3D0A        	sz z
  29  001E  1480     E  	inc rc
  30  001F              #line 30 "D:\WORK\Project\Github\etable\code\lib\my_fun.c"
  30  001F              ;# 30 "D:\WORK\Project\Github\etable\code\lib\my_fun.c" 1
  30  001F  0001        	clr wdt
  30  0020  2800     R  	jmp _L6
  30  0021              _L7:
  32  0021              #line 32 "D:\WORK\Project\Github\etable\code\lib\my_fun.c"
  32  0021  0700     E  	mov a,rb
  32  0022  0300     R  	add a,_my_strcpy_2[0]
  32  0023  0083        	mov mp,a
  32  0024  0700     E  	mov a,rc
  32  0025  1300     R  	adc a,_my_strcpy_2[1]
  32  0026  0081        	mov sbp,a
  32  0027  0701        	mov a,sbp
  32  0028  0084        	mov bp,a
  32  0029  0F00        	mov a,0
  32  002A  0082        	mov ir,a
  34  002B              #line 34 "D:\WORK\Project\Github\etable\code\lib\my_fun.c"
  34  002B  0700     E  	mov a,rb
  34  002C  0003        	ret
  34  002D              _my_strcpy endp
  34  002D              #line 34 "D:\WORK\Project\Github\etable\code\lib\my_fun.c"
  34  002D              #pragma debug scope 1 1
  34  002D              public _my_strcpy1
  34  002D              #pragma debug scope 4 1
  38  002D              #line 38 "D:\WORK\Project\Github\etable\code\lib\my_fun.c"
  38  0000              _my_strcpy1 .section 'code'
  38  0000              _my_strcpy1 proc
  38  0000              public _my_strcpy1_2
  38  0000  0005[           local _my_strcpy1_2 db 5 dup(?)	; 4,1
            00
            ]
  38  0000  0080     R  	mov _my_strcpy1_2[4],a
  38  0001              #pragma debug variable 8 4 _my_strcpy1_2+4 "num"
"File: my_fun.c      Assembler  Version HGASM0202      Page 4

  38  0001              #pragma debug pointer 44 8 4
  38  0001              #pragma debug pointer 44 8 4
  38  0001              #pragma debug variable 44 4 _my_strcpy1_2+0 "dest"
  38  0001              #pragma debug pointer 45 7 4
  38  0001              #pragma debug pointer 45 7 4
  38  0001              #pragma debug variable 45 4 _my_strcpy1_2+2 "source"
  40  0001              #line 40 "D:\WORK\Project\Github\etable\code\lib\my_fun.c"
  40  0001  1F00     E  	clr rb
  40  0002  1F00     E  	clr rc
  40  0003  2800     R  	jmp _L13
  40  0004              _L14:
  42  0004              #line 42 "D:\WORK\Project\Github\etable\code\lib\my_fun.c"
  42  0004  0700     E  	mov a,rb
  42  0005  0300     R  	add a,_my_strcpy1_2[2]
  42  0006  0083        	mov mp,a
  42  0007  0700     E  	mov a,rc
  42  0008  1300     R  	adc a,_my_strcpy1_2[3]
  42  0009  0081        	mov sbp,a
  42  000A  2000     E  	call _Crom2Prom
  42  000B  0080     E  	mov ra,a
  42  000C  0700     E  	mov a,rb
  42  000D  0300     R  	add a,_my_strcpy1_2[0]
  42  000E  0083        	mov mp,a
  42  000F  0700     E  	mov a,rc
  42  0010  1300     R  	adc a,_my_strcpy1_2[1]
  42  0011  0081        	mov sbp,a
  42  0012  0701        	mov a,sbp
  42  0013  0084        	mov bp,a
  42  0014  0700     E  	mov a,ra
  42  0015  0082        	mov ir,a
  40  0016              #line 40 "D:\WORK\Project\Github\etable\code\lib\my_fun.c"
  40  0016  1480     E  	inc rb
  40  0017  3D0A        	sz z
  40  0018  1480     E  	inc rc
  40  0019              _L13:
  40  0019  0700     R  	mov a,_my_strcpy1_2[4]
  40  001A  0080     E  	mov rd,a
  40  001B  1F00     E  	clr re
  40  001C  0700     E  	mov a,rb
  40  001D  0200     E  	sub a,rd
  40  001E  0700     E  	mov a,rc
  40  001F  1200     E  	sbc a,re
  40  0020  1185        	swap acc
  40  0021  040A        	xor a,status
  40  0022  3D85        	sz acc.3
  40  0023  2800     R  	jmp _L14
  40  0024  0003        	ret
  40  0025              _my_strcpy1 endp
  40  0025              #line 40 "D:\WORK\Project\Github\etable\code\lib\my_fun.c"
  40  0025              #pragma debug scope 1 1
  40  0025              public _my_strcmp
  40  0025              #pragma debug scope 5 1
  48  0025              #line 48 "D:\WORK\Project\Github\etable\code\lib\my_fun.c"
  48  0000              _my_strcmp .section 'code'
  48  0000              _my_strcmp proc
  48  0000              public _my_strcmp_2
  48  0000  0005[           local _my_strcmp_2 db 5 dup(?)	; 4,1
            00
            ]
  48  0000  0080     R  	mov _my_strcmp_2[4],a
"File: my_fun.c      Assembler  Version HGASM0202      Page 5

  48  0001              #pragma debug variable 8 5 _my_strcmp_2+4 "num"
  48  0001              #pragma debug pointer 46 8 5
  48  0001              #pragma debug pointer 46 8 5
  48  0001              #pragma debug variable 46 5 _my_strcmp_2+0 "dest"
  48  0001              #pragma debug pointer 47 7 5
  48  0001              #pragma debug pointer 47 7 5
  48  0001              #pragma debug variable 47 5 _my_strcmp_2+2 "source"
  50  0001              #line 50 "D:\WORK\Project\Github\etable\code\lib\my_fun.c"
  50  0001  1F00     E  	clr rb
  50  0002  1F00     E  	clr rc
  50  0003              _L16:
  50  0003              #line 50 "D:\WORK\Project\Github\etable\code\lib\my_fun.c"
  50  0003  0700     R  	mov a,_my_strcmp_2[4]
  50  0004  0080     E  	mov rd,a
  50  0005  1F00     E  	clr re
  50  0006  0700     E  	mov a,rb
  50  0007  0200     E  	sub a,rd
  50  0008  0700     E  	mov a,rc
  50  0009  1200     E  	sbc a,re
  50  000A  1185        	swap acc
  50  000B  040A        	xor a,status
  50  000C  3985        	snz acc.3
  50  000D  2800     R  	jmp _L20
  52  000E              #line 52 "D:\WORK\Project\Github\etable\code\lib\my_fun.c"
  52  000E  0700     E  	mov a,rb
  52  000F  0300     R  	add a,_my_strcmp_2[0]
  52  0010  0083        	mov mp,a
  52  0011  0700     E  	mov a,rc
  52  0012  1300     R  	adc a,_my_strcmp_2[1]
  52  0013  0081        	mov sbp,a
  52  0014  2000     E  	call _Crom2Prom
  52  0015  0080     E  	mov rd,a
  52  0016  0700     E  	mov a,rb
  52  0017  0300     R  	add a,_my_strcmp_2[2]
  52  0018  0083        	mov mp,a
  52  0019  0700     E  	mov a,rc
  52  001A  1300     R  	adc a,_my_strcmp_2[3]
  52  001B  0081        	mov sbp,a
  52  001C  2000     E  	call _Crom2Prom
  52  001D  0080     E  	mov ra,a
  52  001E  0700     E  	mov a,rd
  52  001F  0200     E  	sub a,ra
  52  0020  390A        	snz z
  52  0021  2800     R  	jmp _L19
  50  0022              #line 50 "D:\WORK\Project\Github\etable\code\lib\my_fun.c"
  50  0022  1480     E  	inc rb
  50  0023  3D0A        	sz z
  50  0024  1480     E  	inc rc
  50  0025  2800     R  	jmp _L16
  50  0026              _L20:
  55  0026              #line 55 "D:\WORK\Project\Github\etable\code\lib\my_fun.c"
  55  0026  0F01        	mov a,1
  55  0027  0080     E  	mov ra,a
  55  0028  2800     R  	jmp _L17
  55  0029              _L19:
  53  0029              #line 53 "D:\WORK\Project\Github\etable\code\lib\my_fun.c"
  53  0029  1F00     E  	clr ra
  53  002A              _L17:
  56  002A              #line 56 "D:\WORK\Project\Github\etable\code\lib\my_fun.c"
  56  002A  0700     E  	mov a,ra
"File: my_fun.c      Assembler  Version HGASM0202      Page 6

  56  002B  0003        	ret
  56  002C              _my_strcmp endp
  56  002C              #line 56 "D:\WORK\Project\Github\etable\code\lib\my_fun.c"
  56  002C              #pragma debug scope 1 1
  56  002C              public _Hex2char
  56  002C              #pragma debug scope 6 1
  62  002C              #line 62 "D:\WORK\Project\Github\etable\code\lib\my_fun.c"
  62  0000              _Hex2char .section 'code'
  62  0000              _Hex2char proc
  62  0000  0002[           local _Hex2char_2 db 2 dup(?)	; 0,2
            00
            ]
  62  0000  0080     E  	mov ra,a
  62  0001  0080     R  	mov _Hex2char_2[1],a
  62  0002              #pragma debug variable 8 6 _Hex2char_2+1 "num"
  62  0002              #pragma debug variable 8 6 _Hex2char_2+0 "u8temp"
  65  0002              #line 65 "D:\WORK\Project\Github\etable\code\lib\my_fun.c"
  65  0002  0700     E  	mov a,ra
  65  0003  0E0F        	and a,15
  65  0004  0080     R  	mov _Hex2char_2[0],a
  66  0005              #line 66 "D:\WORK\Project\Github\etable\code\lib\my_fun.c"
  66  0005  0F09        	mov a,9
  66  0006  0200     R  	sub a,_Hex2char_2[0]
  66  0007  380A        	snz c
  66  0008  2800     R  	jmp _L22
  68  0009              #line 68 "D:\WORK\Project\Github\etable\code\lib\my_fun.c"
  68  0009  0700     R  	mov a,_Hex2char_2[0]
  68  000A  0B30        	add a,48
  68  000B  0080     E  	mov ra,a
  68  000C  2800     R  	jmp _L23
  68  000D              _L22:
  72  000D              #line 72 "D:\WORK\Project\Github\etable\code\lib\my_fun.c"
  72  000D  0700     R  	mov a,_Hex2char_2[0]
  72  000E  0B37        	add a,55
  72  000F  0080     E  	mov ra,a
  72  0010              _L23:
  74  0010              #line 74 "D:\WORK\Project\Github\etable\code\lib\my_fun.c"
  74  0010  0700     E  	mov a,ra
  74  0011  0003        	ret
  74  0012              _Hex2char endp
  74  0012              #line 74 "D:\WORK\Project\Github\etable\code\lib\my_fun.c"
  74  0012              #pragma debug scope 1 1
  74  0012              public _Char2hex
  74  0012              #pragma debug scope 7 1
  80  0012              #line 80 "D:\WORK\Project\Github\etable\code\lib\my_fun.c"
  80  0000              _Char2hex .section 'code'
  80  0000              _Char2hex proc
  80  0000  00              local _Char2hex_2 db 1 dup(?)	; 0,1
  80  0000  0080     E  	mov ra,a
  80  0001  0080     R  	mov _Char2hex_2[0],a
  80  0002              #pragma debug variable 8 7 _Char2hex_2+0 "num"
  81  0002              #line 81 "D:\WORK\Project\Github\etable\code\lib\my_fun.c"
  81  0002  0FD0        	mov a,208
  81  0003  0380     E  	addm a,ra
  81  0004  0F09        	mov a,9
  81  0005  0200     E  	sub a,ra
  81  0006  3C0A        	sz c
  81  0007  2800     R  	jmp _L26
  85  0008              #line 85 "D:\WORK\Project\Github\etable\code\lib\my_fun.c"
  85  0008  0700     R  	mov a,_Char2hex_2[0]
"File: my_fun.c      Assembler  Version HGASM0202      Page 7

  85  0009  0BBF        	add a,191
  85  000A  0080     E  	mov ra,a
  85  000B  0F05        	mov a,5
  85  000C  0200     E  	sub a,ra
  85  000D  380A        	snz c
  85  000E  2800     R  	jmp _L27
  87  000F              #line 87 "D:\WORK\Project\Github\etable\code\lib\my_fun.c"
  87  000F  0700     R  	mov a,_Char2hex_2[0]
  87  0010  0BC9        	add a,201
  87  0011  0080     E  	mov ra,a
  87  0012  2800     R  	jmp _L26
  87  0013              _L27:
  90  0013              #line 90 "D:\WORK\Project\Github\etable\code\lib\my_fun.c"
  90  0013  1F00     E  	clr ra
  90  0014              _L26:
  91  0014              #line 91 "D:\WORK\Project\Github\etable\code\lib\my_fun.c"
  91  0014  0700     E  	mov a,ra
  91  0015  0003        	ret
  91  0016              _Char2hex endp
  91  0016              #line 91 "D:\WORK\Project\Github\etable\code\lib\my_fun.c"
  91  0016              #pragma debug scope 1 1
  91  0000              @crom	.section 'crom'
  91  0000              _LC0:
  91  0000              	db 030h,031h,032h,033h,034h,035h,036h,037h,038h,039h
  91  0005              	db 00h
  91  0006              public _utoa
  91  0006              #pragma debug scope 8 1
  95  0006              #line 95 "D:\WORK\Project\Github\etable\code\lib\my_fun.c"
  95  0000              _utoa .section 'code'
  95  0000              _utoa proc
  95  0000              public _utoa_2
  95  0000  0006[           local _utoa_2 db 6 dup(?)	; 4,2
            00
            ]
  95  0006              #pragma debug variable 10 8 _utoa_2+0 "n"
  95  0006              #pragma debug pointer 48 8 8
  95  0006              #pragma debug pointer 48 8 8
  95  0006              #pragma debug variable 48 8 _utoa_2+2 "str"
  95  0006              #pragma debug variable 10 8 _utoa_2+4 "temp"
  99  0006              #line 99 "D:\WORK\Project\Github\etable\code\lib\my_fun.c"
  99  0000  0700     R  	mov a,_utoa_2[0]
  99  0001  0080     R  	mov _utoa_2[4],a
  99  0002  0700     R  	mov a,_utoa_2[1]
  99  0003  0080     R  	mov _utoa_2[5],a
 100  0004              #line 100 "D:\WORK\Project\Github\etable\code\lib\my_fun.c"
 100  0004  0700     R  	mov a,_utoa_2[0]
 100  0005  0500     R  	or a,_utoa_2[1]
 100  0006  390A        	snz z
 100  0007  2800     R  	jmp _L29
 103  0008              #line 103 "D:\WORK\Project\Github\etable\code\lib\my_fun.c"
 103  0008  0700     R  	mov a,_utoa_2[2]
 103  0009  0083        	mov mp,a
 103  000A  0700     R  	mov a,_utoa_2[3]
 103  000B  0081        	mov sbp,a
 103  000C  0701        	mov a,sbp
 103  000D  0084        	mov bp,a
 103  000E  0F30        	mov a,48
 103  000F  0082        	mov ir,a
 103  0010  0F01        	mov a,1
 103  0011  0300     R  	add a,_utoa_2[2]
"File: my_fun.c      Assembler  Version HGASM0202      Page 8

 103  0012  0083        	mov mp,a
 103  0013  0F00        	mov a,0
 103  0014  1300     R  	adc a,_utoa_2[3]
 103  0015  0081        	mov sbp,a
 103  0016  0701        	mov a,sbp
 103  0017  0084        	mov bp,a
 103  0018  0F30        	mov a,48
 103  0019  0082        	mov ir,a
 103  001A  0F02        	mov a,2
 103  001B  0300     R  	add a,_utoa_2[2]
 103  001C  0083        	mov mp,a
 103  001D  0F00        	mov a,0
 103  001E  1300     R  	adc a,_utoa_2[3]
 103  001F  0081        	mov sbp,a
 103  0020  0701        	mov a,sbp
 103  0021  0084        	mov bp,a
 103  0022  0F30        	mov a,48
 103  0023  0082        	mov ir,a
 103  0024  2800     R  	jmp _L28
 103  0025              _L29:
 100  0025              #line 100 "D:\WORK\Project\Github\etable\code\lib\my_fun.c"
 100  0025  0F03        	mov a,3
 100  0026  0080     E  	mov ra,a
 100  0027  1F00     E  	clr rd
 100  0028              _L31:
 109  0028              #line 109 "D:\WORK\Project\Github\etable\code\lib\my_fun.c"
 109  0028  1F00     E  	clr _builtin_holtek_udivmodhi4_2[6]
 109  0029  0700     R  	mov a,_utoa_2[4]  
 109  002A  0080     E  	mov _builtin_holtek_udivmodhi4_2[0],a  
 109  002B  0700     R  	mov a,_utoa_2[5]  
 109  002C  0080     E  	mov _builtin_holtek_udivmodhi4_2[1],a
 109  002D  0F0A        	mov a,10  
 109  002E  0080     E  	mov _builtin_holtek_udivmodhi4_2[2],a  
 109  002F  1F00     E  	clr _builtin_holtek_udivmodhi4_2[3]
 109  0030  2000     E  	call _builtin_holtek_udivmodhi4
 109  0031  0700     E  	mov a,_builtin_holtek_udivmodhi4_2[4]  
 109  0032  0080     E  	mov rb,a  
 109  0033  0700     E  	mov a,_builtin_holtek_udivmodhi4_2[5]  
 109  0034  0080     E  	mov rc,a
 109  0035  0F00     R  	mov a,low offset _LC0
 109  0036  0300     E  	add a,rb
 109  0037  0083        	mov mp,a
 109  0038  0F00     R  	mov a,high offset _LC0
 109  0039  1300     E  	adc a,rc
 109  003A  0081        	mov sbp,a
 109  003B  2000     E  	call _Crom2Prom
 109  003C  0080     E  	mov rb,a
 109  003D  0700     E  	mov a,rd
 109  003E  0300     R  	add a,_utoa_2[2]
 109  003F  0083        	mov mp,a
 109  0040  1F05        	clr acc
 109  0041  1300     R  	adc a,_utoa_2[3]
 109  0042  0081        	mov sbp,a
 109  0043  0701        	mov a,sbp
 109  0044  0084        	mov bp,a
 109  0045  0700     E  	mov a,rb
 109  0046  0082        	mov ir,a
 110  0047              #line 110 "D:\WORK\Project\Github\etable\code\lib\my_fun.c"
 110  0047  1F00     E  	clr _builtin_holtek_udivmodhi4_2[6]
 110  0048  0700     R  	mov a,_utoa_2[4]  
"File: my_fun.c      Assembler  Version HGASM0202      Page 9

 110  0049  0080     E  	mov _builtin_holtek_udivmodhi4_2[0],a  
 110  004A  0700     R  	mov a,_utoa_2[5]  
 110  004B  0080     E  	mov _builtin_holtek_udivmodhi4_2[1],a
 110  004C  0F0A        	mov a,10  
 110  004D  0080     E  	mov _builtin_holtek_udivmodhi4_2[2],a  
 110  004E  1F00     E  	clr _builtin_holtek_udivmodhi4_2[3]
 110  004F  2000     E  	call _builtin_holtek_udivmodhi4
 110  0050  0700     E  	mov a,_builtin_holtek_udivmodhi4_2[0]  
 110  0051  0080     R  	mov _utoa_2[4],a  
 110  0052  0700     E  	mov a,_builtin_holtek_udivmodhi4_2[1]  
 110  0053  0080     R  	mov _utoa_2[5],a
 107  0054              #line 107 "D:\WORK\Project\Github\etable\code\lib\my_fun.c"
 107  0054  1480     E  	inc rd
 107  0055  1780     E  	sdz ra
 107  0056  2800     R  	jmp _L31
 107  0057              _L28:
 107  0057  0003        	ret
 107  0058              _utoa endp
 107  0058              #line 107 "D:\WORK\Project\Github\etable\code\lib\my_fun.c"
 107  0058              #pragma debug scope 1 1
 107  0058              public _strlen
 107  0058              #pragma debug scope 9 1
 116  0058              #line 116 "D:\WORK\Project\Github\etable\code\lib\my_fun.c"
 116  0000              _strlen .section 'code'
 116  0000              _strlen proc
 116  0000              public _strlen_2
 116  0000  0002[           local _strlen_2 db 2 dup(?)	; 2,0
            00
            ]
 116  0002              #pragma debug pointer 49 8 9
 116  0002              #pragma debug pointer 49 8 9
 116  0002              #pragma debug variable 49 9 _strlen_2+0 "str"
 118  0002              #line 118 "D:\WORK\Project\Github\etable\code\lib\my_fun.c"
 118  0000  0F22        	mov a,34
 118  0001  0080     E  	mov rb,a
 117  0002              #line 117 "D:\WORK\Project\Github\etable\code\lib\my_fun.c"
 117  0002  1F00     E  	clr ra
 117  0003              _L36:
 118  0003              #line 118 "D:\WORK\Project\Github\etable\code\lib\my_fun.c"
 118  0003  0700     E  	mov a,ra
 118  0004  0300     R  	add a,_strlen_2[0]
 118  0005  0083        	mov mp,a
 118  0006  1F05        	clr acc
 118  0007  1300     R  	adc a,_strlen_2[1]
 118  0008  0081        	mov sbp,a
 118  0009  2000     E  	call _Crom2Prom
 118  000A  0080     E  	mov rc,a
 118  000B  1080     E  	sz rc
 118  000C  2800     R  	jmp _LI2
 118  000D  2800     R  	jmp _L37
 118  000E              _LI2:
 118  000E  1780     E  	sdz rb
 118  000F  2800     R  	jmp _LI3
 118  0010  2800     R  	jmp _L39
 118  0011              _LI3:
 123  0011              #line 123 "D:\WORK\Project\Github\etable\code\lib\my_fun.c"
 123  0011  1480     E  	inc ra
 124  0012              #line 124 "D:\WORK\Project\Github\etable\code\lib\my_fun.c"
 124  0012              ;# 124 "D:\WORK\Project\Github\etable\code\lib\my_fun.c" 1
 124  0012  0001        	clr wdt
"File: my_fun.c      Assembler  Version HGASM0202      Page 10

 124  0013  2800     R  	jmp _L36
 124  0014              _L39:
 124  0014  0F21        	mov a,33
 124  0015  0080     E  	mov ra,a
 124  0016              _L37:
 127  0016              #line 127 "D:\WORK\Project\Github\etable\code\lib\my_fun.c"
 127  0016  0700     E  	mov a,ra
 127  0017  0003        	ret
 127  0018              _strlen endp
 127  0018              #line 127 "D:\WORK\Project\Github\etable\code\lib\my_fun.c"
 127  0018              #pragma debug scope 1 1
 127  0018              public _atou
 127  0018              #pragma debug scope 10 1
 132  0018              #line 132 "D:\WORK\Project\Github\etable\code\lib\my_fun.c"
 132  0000              _atou .section 'code'
 132  0000              _atou proc
 132  0000              public _atou_2
 132  0000  0012[           local _atou_2 db 18 dup(?)	; 2,16
            00
            ]
 132  0012              #pragma debug pointer 50 8 10
 132  0012              #pragma debug pointer 50 8 10
 132  0012              #pragma debug variable 50 10 _atou_2+0 "str"
 132  0012              #pragma debug variable 8 10 _atou_2+15 "n"
 132  0012              #pragma debug variable 8 10 _atou_2+14 "i"
 132  0012              #pragma debug variable 14 10 _atou_2+10 "sum"
 132  0012              #pragma debug variable 14 10 _atou_2+6 "u32temp"
 132  0012              #pragma debug variable 14 10 _atou_2+2 "dig10"
 134  0012              #line 134 "D:\WORK\Project\Github\etable\code\lib\my_fun.c"
 134  0000  1F00     R  	clr _atou_2[10]
 134  0001  1F00     R  	clr _atou_2[11]
 134  0002  1F00     R  	clr _atou_2[12]
 134  0003  1F00     R  	clr _atou_2[13]
 134  0004  1F00     R  	clr _atou_2[6]
 134  0005  1F00     R  	clr _atou_2[7]
 134  0006  1F00     R  	clr _atou_2[8]
 134  0007  1F00     R  	clr _atou_2[9]
 134  0008  1F00     R  	clr _atou_2[2]
 134  0009  1F00     R  	clr _atou_2[3]
 134  000A  1F00     R  	clr _atou_2[4]
 134  000B  1F00     R  	clr _atou_2[5]
 136  000C              #line 136 "D:\WORK\Project\Github\etable\code\lib\my_fun.c"
 136  000C  0700     R  	mov a,_atou_2[0]
 136  000D  0080     R  	mov _strlen_2[0],a
 136  000E  0700     R  	mov a,_atou_2[1]
 136  000F  0080     R  	mov _strlen_2[1],a
 136  0010  2000     R  	call _strlen
 136  0011  0080     R  	mov _atou_2[15],a
 138  0012              #line 138 "D:\WORK\Project\Github\etable\code\lib\my_fun.c"
 138  0012  1F00     R  	clr _atou_2[14]
 140  0013              #line 140 "D:\WORK\Project\Github\etable\code\lib\my_fun.c"
 140  0013  0BFF        	add a,255
 140  0014  0080     R  	mov _atou_2[16],a
 140  0015  0FFF        	mov a,255
 140  0016  1F00     R  	clr _atou_2[17]
 140  0017  1380     R  	adcm a,_atou_2[17]
 140  0018              _L41:
 138  0018              #line 138 "D:\WORK\Project\Github\etable\code\lib\my_fun.c"
 138  0018  0700     R  	mov a,_atou_2[14]
 138  0019  0200     R  	sub a,_atou_2[15]
"File: my_fun.c      Assembler  Version HGASM0202      Page 11

 138  001A  3C0A        	sz c
 138  001B  2800     R  	jmp _L45
 140  001C              #line 140 "D:\WORK\Project\Github\etable\code\lib\my_fun.c"
 140  001C  0700     R  	mov a,_atou_2[16]
 140  001D  0200     R  	sub a,_atou_2[14]
 140  001E  0080     E  	mov rd,a
 140  001F  0700     R  	mov a,_atou_2[17]
 140  0020  1F00     E  	clr re
 140  0021  1280     E  	sbcm a,re
 140  0022  0700     E  	mov a,rd
 140  0023  0300     R  	add a,_atou_2[0]
 140  0024  0083        	mov mp,a
 140  0025  0700     E  	mov a,re
 140  0026  1300     R  	adc a,_atou_2[1]
 140  0027  0081        	mov sbp,a
 140  0028  2000     E  	call _Crom2Prom
 140  0029  2000     R  	call _Char2hex
 140  002A  0080     E  	mov ra,a
 140  002B  0700     E  	mov a,ra
 140  002C  0080     R  	mov _atou_2[6],a
 140  002D  1F00     R  	clr _atou_2[7]
 140  002E  1F00     R  	clr _atou_2[8]
 140  002F  1F00     R  	clr _atou_2[9]
 141  0030              #line 141 "D:\WORK\Project\Github\etable\code\lib\my_fun.c"
 141  0030  0F01        	mov a,1
 141  0031  0080     R  	mov _atou_2[2],a
 141  0032  1F00     R  	clr _atou_2[3]
 141  0033  1F00     R  	clr _atou_2[4]
 141  0034  1F00     R  	clr _atou_2[5]
 142  0035              #line 142 "D:\WORK\Project\Github\etable\code\lib\my_fun.c"
 142  0035  1F00     E  	clr ra
 142  0036              _L42:
 142  0036  0700     E  	mov a,ra
 142  0037  0200     R  	sub a,_atou_2[14]
 142  0038  3D0A        	sz z
 142  0039  2800     R  	jmp _L46
 143  003A              #line 143 "D:\WORK\Project\Github\etable\code\lib\my_fun.c"
 143  003A  0700     R  	mov a,_atou_2[2]
 143  003B  0080     E  	mov _builtin_holtek_mulsi3_2[0],a
 143  003C  0700     R  	mov a,_atou_2[3]
 143  003D  0080     E  	mov _builtin_holtek_mulsi3_2[1],a
 143  003E  0700     R  	mov a,_atou_2[4]
 143  003F  0080     E  	mov _builtin_holtek_mulsi3_2[2],a
 143  0040  0700     R  	mov a,_atou_2[5]
 143  0041  0080     E  	mov _builtin_holtek_mulsi3_2[3],a
 143  0042  0F0A        	mov a,10
 143  0043  0080     E  	mov _builtin_holtek_mulsi3_2[4],a
 143  0044  0F00        	mov a,0
 143  0045  0080     E  	mov _builtin_holtek_mulsi3_2[5],a
 143  0046  0F00        	mov a,0
 143  0047  0080     E  	mov _builtin_holtek_mulsi3_2[6],a
 143  0048  0F00        	mov a,0
 143  0049  0080     E  	mov _builtin_holtek_mulsi3_2[7],a
 143  004A  2000     E  	call _builtin_holtek_mulsi3
 143  004B  0700     E  	mov a,_builtin_holtek_mulsi3_2[8]
 143  004C  0080     R  	mov _atou_2[2],a
 143  004D  0700     E  	mov a,_builtin_holtek_mulsi3_2[9]
 143  004E  0080     R  	mov _atou_2[3],a
 143  004F  0700     E  	mov a,_builtin_holtek_mulsi3_2[10]
 143  0050  0080     R  	mov _atou_2[4],a
"File: my_fun.c      Assembler  Version HGASM0202      Page 12

 143  0051  0700     E  	mov a,_builtin_holtek_mulsi3_2[11]
 143  0052  0080     R  	mov _atou_2[5],a
 142  0053              #line 142 "D:\WORK\Project\Github\etable\code\lib\my_fun.c"
 142  0053  1480     E  	inc ra
 142  0054  2800     R  	jmp _L42
 142  0055              _L46:
 144  0055              #line 144 "D:\WORK\Project\Github\etable\code\lib\my_fun.c"
 144  0055  0700     R  	mov a,_atou_2[2]
 144  0056  0080     E  	mov _builtin_holtek_mulsi3_2[0],a
 144  0057  0700     R  	mov a,_atou_2[3]
 144  0058  0080     E  	mov _builtin_holtek_mulsi3_2[1],a
 144  0059  0700     R  	mov a,_atou_2[4]
 144  005A  0080     E  	mov _builtin_holtek_mulsi3_2[2],a
 144  005B  0700     R  	mov a,_atou_2[5]
 144  005C  0080     E  	mov _builtin_holtek_mulsi3_2[3],a
 144  005D  0700     R  	mov a,_atou_2[6]
 144  005E  0080     E  	mov _builtin_holtek_mulsi3_2[4],a
 144  005F  0700     R  	mov a,_atou_2[7]
 144  0060  0080     E  	mov _builtin_holtek_mulsi3_2[5],a
 144  0061  0700     R  	mov a,_atou_2[8]
 144  0062  0080     E  	mov _builtin_holtek_mulsi3_2[6],a
 144  0063  0700     R  	mov a,_atou_2[9]
 144  0064  0080     E  	mov _builtin_holtek_mulsi3_2[7],a
 144  0065  2000     E  	call _builtin_holtek_mulsi3
 144  0066  0700     E  	mov a,_builtin_holtek_mulsi3_2[8]
 144  0067  0080     R  	mov _atou_2[6],a
 144  0068  0700     E  	mov a,_builtin_holtek_mulsi3_2[9]
 144  0069  0080     R  	mov _atou_2[7],a
 144  006A  0700     E  	mov a,_builtin_holtek_mulsi3_2[10]
 144  006B  0080     R  	mov _atou_2[8],a
 144  006C  0700     E  	mov a,_builtin_holtek_mulsi3_2[11]
 144  006D  0080     R  	mov _atou_2[9],a
 145  006E              #line 145 "D:\WORK\Project\Github\etable\code\lib\my_fun.c"
 145  006E  0700     R  	mov a,_atou_2[6]
 145  006F  0380     R  	addm a,_atou_2[10]
 145  0070  0700     R  	mov a,_atou_2[7]
 145  0071  1380     R  	adcm a,_atou_2[11]
 145  0072  0700     R  	mov a,_atou_2[8]
 145  0073  1380     R  	adcm a,_atou_2[12]
 145  0074  0700     R  	mov a,_atou_2[9]
 145  0075  1380     R  	adcm a,_atou_2[13]
 138  0076              #line 138 "D:\WORK\Project\Github\etable\code\lib\my_fun.c"
 138  0076  1480     R  	inc _atou_2[14]
 138  0077  2800     R  	jmp _L41
 138  0078              _L45:
 148  0078              #line 148 "D:\WORK\Project\Github\etable\code\lib\my_fun.c"
 148  0078  0700     R  	mov a,_atou_2[10]
 148  0079  0080     E  	mov ra,a
 148  007A  0700     R  	mov a,_atou_2[11]
 148  007B  0080     E  	mov rb,a
 148  007C  0700     R  	mov a,_atou_2[12]
 148  007D  0080     E  	mov rc,a
 148  007E  0700     R  	mov a,_atou_2[13]
 148  007F  0080     E  	mov rd,a
 148  0080  0003        	ret
 148  0081              _atou endp
 148  0081              #line 148 "D:\WORK\Project\Github\etable\code\lib\my_fun.c"
 148  0081              #pragma debug scope 1 1
 148  0081              ___eea equ [30]
 148  0081              ___eed equ [31]
"File: my_fun.c      Assembler  Version HGASM0202      Page 13

 148  0081              ___mp1 equ [3]
 148  0081              ___bp equ [4]
 148  0081              ___intc0 equ [14]
 148  0081              _iar1 equ [2]
 148  0081              ___iar1 equ [2]
 148  0081              public _EE_Write_Byte
 148  0081              #pragma debug scope 11 1
 152  0081              #line 152 "D:\WORK\Project\Github\etable\code\lib\my_fun.c"
 152  0000              _EE_Write_Byte .section 'code'
 152  0000              _EE_Write_Byte proc
 152  0000              public _EE_Write_Byte_2
 152  0000  0002[           local _EE_Write_Byte_2 db 2 dup(?)	; 1,1
            00
            ]
 152  0000  0080     E  	mov ra,a
 152  0001  0080     R  	mov _EE_Write_Byte_2[1],a
 152  0002              #pragma debug variable 8 11 _EE_Write_Byte_2+1 "addr"
 152  0002              #pragma debug variable 8 11 _EE_Write_Byte_2+0 "data"
 155  0002              #line 155 "D:\WORK\Project\Github\etable\code\lib\my_fun.c"
 155  0002  0700     E  	mov a,ra
 155  0003  009E        	mov [30],a
 156  0004              #line 156 "D:\WORK\Project\Github\etable\code\lib\my_fun.c"
 156  0004  0700     R  	mov a,_EE_Write_Byte_2[0]
 156  0005  009F        	mov [31],a
 157  0006              #line 157 "D:\WORK\Project\Github\etable\code\lib\my_fun.c"
 157  0006  0F40        	mov a,64
 157  0007  0083        	mov [3],a
 158  0008              #line 158 "D:\WORK\Project\Github\etable\code\lib\my_fun.c"
 158  0008  0F01        	mov a,1
 158  0009  0084        	mov [4],a
 159  000A              #line 159 "D:\WORK\Project\Github\etable\code\lib\my_fun.c"
 159  000A  340E        	clr [14].0
 160  000B              #line 160 "D:\WORK\Project\Github\etable\code\lib\my_fun.c"
 160  000B  3182        	set [2].3
 160  000C  3102        	set [2].2
 161  000D              #line 161 "D:\WORK\Project\Github\etable\code\lib\my_fun.c"
 161  000D  300E        	set [14].0
 162  000E              #line 162 "D:\WORK\Project\Github\etable\code\lib\my_fun.c"
 162  000E  1F80     E  	set rb
 162  000F  1F80     E  	set rc
 162  0010              _L48:
 162  0010              #line 162 "D:\WORK\Project\Github\etable\code\lib\my_fun.c"
 162  0010  3902        	snz [2].2
 162  0011  2800     R  	jmp _L52
 165  0012              #line 165 "D:\WORK\Project\Github\etable\code\lib\my_fun.c"
 165  0012              ;# 165 "D:\WORK\Project\Github\etable\code\lib\my_fun.c" 1
 165  0012  0001        	clr wdt
 165  0013  0FFF        	mov a,255
 165  0014  0380     E  	addm a,rb
 165  0015  0FFF        	mov a,255
 165  0016  1380     E  	adcm a,rc
 167  0017              #line 167 "D:\WORK\Project\Github\etable\code\lib\my_fun.c"
 167  0017  0700     E  	mov a,rb
 167  0018  0500     E  	or a,rc
 167  0019  390A        	snz z
 167  001A  2800     R  	jmp _L48
 169  001B              #line 169 "D:\WORK\Project\Github\etable\code\lib\my_fun.c"
 169  001B  1F02        	clr [2]
 170  001C              #line 170 "D:\WORK\Project\Github\etable\code\lib\my_fun.c"
 170  001C  1F04        	clr [4]
"File: my_fun.c      Assembler  Version HGASM0202      Page 14

 171  001D              #line 171 "D:\WORK\Project\Github\etable\code\lib\my_fun.c"
 171  001D  1F00     E  	clr ra
 171  001E  2800     R  	jmp _L50
 171  001F              _L52:
 174  001F              #line 174 "D:\WORK\Project\Github\etable\code\lib\my_fun.c"
 174  001F  1F02        	clr [2]
 175  0020              #line 175 "D:\WORK\Project\Github\etable\code\lib\my_fun.c"
 175  0020  1F04        	clr [4]
 176  0021              #line 176 "D:\WORK\Project\Github\etable\code\lib\my_fun.c"
 176  0021  0F01        	mov a,1
 176  0022  0080     E  	mov ra,a
 176  0023              _L50:
 177  0023              #line 177 "D:\WORK\Project\Github\etable\code\lib\my_fun.c"
 177  0023  0700     E  	mov a,ra
 177  0024  0003        	ret
 177  0025              _EE_Write_Byte endp
 177  0025              #line 177 "D:\WORK\Project\Github\etable\code\lib\my_fun.c"
 177  0025              #pragma debug scope 1 1
 177  0025              public _EE_Write
 177  0025              #pragma debug scope 12 1
 180  0025              #line 180 "D:\WORK\Project\Github\etable\code\lib\my_fun.c"
 180  0000              _EE_Write .section 'code'
 180  0000              _EE_Write proc
 180  0000              public _EE_Write_2
 180  0000  0005[           local _EE_Write_2 db 5 dup(?)	; 3,2
            00
            ]
 180  0000  0080     R  	mov _EE_Write_2[3],a
 180  0001              #pragma debug variable 8 12 _EE_Write_2+3 "n"
 180  0001              #pragma debug variable 8 12 _EE_Write_2+0 "addr"
 180  0001              #pragma debug pointer 51 8 12
 180  0001              #pragma debug pointer 51 8 12
 180  0001              #pragma debug variable 51 12 _EE_Write_2+1 "buff"
 180  0001              #pragma debug variable 8 12 _EE_Write_2+4 "i"
 182  0001              #line 182 "D:\WORK\Project\Github\etable\code\lib\my_fun.c"
 182  0001  1F00     R  	clr _EE_Write_2[4]
 182  0002  2800     R  	jmp _L54
 182  0003              _L55:
 184  0003              #line 184 "D:\WORK\Project\Github\etable\code\lib\my_fun.c"
 184  0003  0700     R  	mov a,_EE_Write_2[4]
 184  0004  0300     R  	add a,_EE_Write_2[0]
 184  0005  0080     E  	mov ra,a
 184  0006  0700     R  	mov a,_EE_Write_2[4]
 184  0007  0300     R  	add a,_EE_Write_2[1]
 184  0008  0083        	mov mp,a
 184  0009  1F05        	clr acc
 184  000A  1300     R  	adc a,_EE_Write_2[2]
 184  000B  0081        	mov sbp,a
 184  000C  2000     E  	call _Crom2Prom
 184  000D  0080     R  	mov _EE_Write_Byte_2[0],a
 184  000E  0700     E  	mov a,ra
 184  000F  2000     R  	call _EE_Write_Byte
 182  0010              #line 182 "D:\WORK\Project\Github\etable\code\lib\my_fun.c"
 182  0010  1480     R  	inc _EE_Write_2[4]
 182  0011              _L54:
 182  0011  0700     R  	mov a,_EE_Write_2[4]
 182  0012  0200     R  	sub a,_EE_Write_2[3]
 182  0013  380A        	snz c
 182  0014  2800     R  	jmp _L55
 182  0015  0003        	ret
"File: my_fun.c      Assembler  Version HGASM0202      Page 15

 182  0016              _EE_Write endp
 182  0016              #line 182 "D:\WORK\Project\Github\etable\code\lib\my_fun.c"
 182  0016              #pragma debug scope 1 1
 182  0016              public _EE_Read_Byte
 182  0016              #pragma debug scope 13 1
 190  0016              #line 190 "D:\WORK\Project\Github\etable\code\lib\my_fun.c"
 190  0000              _EE_Read_Byte .section 'code'
 190  0000              _EE_Read_Byte proc
 190  0000  00              local _EE_Read_Byte_2 db 1 dup(?)	; 0,1
 190  0000  0080     E  	mov ra,a
 190  0001  0080     R  	mov _EE_Read_Byte_2[0],a
 190  0002              #pragma debug variable 8 13 _EE_Read_Byte_2+0 "addr"
 192  0002              #line 192 "D:\WORK\Project\Github\etable\code\lib\my_fun.c"
 192  0002  0700     E  	mov a,ra
 192  0003  009E        	mov [30],a
 193  0004              #line 193 "D:\WORK\Project\Github\etable\code\lib\my_fun.c"
 193  0004  0F40        	mov a,64
 193  0005  0083        	mov [3],a
 194  0006              #line 194 "D:\WORK\Project\Github\etable\code\lib\my_fun.c"
 194  0006  0F01        	mov a,1
 194  0007  0084        	mov [4],a
 195  0008              #line 195 "D:\WORK\Project\Github\etable\code\lib\my_fun.c"
 195  0008  340E        	clr [14].0
 196  0009              #line 196 "D:\WORK\Project\Github\etable\code\lib\my_fun.c"
 196  0009  3082        	set [2].1
 196  000A  3002        	set [2].0
 197  000B              #line 197 "D:\WORK\Project\Github\etable\code\lib\my_fun.c"
 197  000B  300E        	set [14].0
 198  000C              #line 198 "D:\WORK\Project\Github\etable\code\lib\my_fun.c"
 198  000C  1F80     E  	set rb
 198  000D  1F80     E  	set rc
 198  000E              _L57:
 198  000E              #line 198 "D:\WORK\Project\Github\etable\code\lib\my_fun.c"
 198  000E  3802        	snz [2].0
 198  000F  2800     R  	jmp _L58
 201  0010              #line 201 "D:\WORK\Project\Github\etable\code\lib\my_fun.c"
 201  0010              ;# 201 "D:\WORK\Project\Github\etable\code\lib\my_fun.c" 1
 201  0010  0001        	clr wdt
 201  0011  0FFF        	mov a,255
 201  0012  0380     E  	addm a,rb
 201  0013  0FFF        	mov a,255
 201  0014  1380     E  	adcm a,rc
 203  0015              #line 203 "D:\WORK\Project\Github\etable\code\lib\my_fun.c"
 203  0015  0700     E  	mov a,rb
 203  0016  0500     E  	or a,rc
 203  0017  390A        	snz z
 203  0018  2800     R  	jmp _L57
 203  0019              _L58:
 206  0019              #line 206 "D:\WORK\Project\Github\etable\code\lib\my_fun.c"
 206  0019  1F02        	clr [2]
 207  001A              #line 207 "D:\WORK\Project\Github\etable\code\lib\my_fun.c"
 207  001A  1F04        	clr [4]
 208  001B              #line 208 "D:\WORK\Project\Github\etable\code\lib\my_fun.c"
 208  001B  071F        	mov a,[31]
 208  001C  0080     E  	mov ra,a
 209  001D              #line 209 "D:\WORK\Project\Github\etable\code\lib\my_fun.c"
 209  001D  0700     E  	mov a,ra
 209  001E  0003        	ret
 209  001F              _EE_Read_Byte endp
 209  001F              #line 209 "D:\WORK\Project\Github\etable\code\lib\my_fun.c"
"File: my_fun.c      Assembler  Version HGASM0202      Page 16

 209  001F              #pragma debug scope 1 1
 209  001F              #pragma debug variable 8 1 ___mp1 "__mp1" 1
 209  001F              #pragma debug struct_end
 209  001F              #pragma debug struct_end
 209  001F              #pragma debug union_end
 209  001F              #pragma debug union_end
 209  001F              #pragma debug variable 53 1 ___bp "__bp" 1
 209  001F              #pragma debug struct_end
 209  001F              #pragma debug struct_end
 209  001F              #pragma debug union_end
 209  001F              #pragma debug union_end
 209  001F              #pragma debug variable 55 1 ___intc0 "__intc0" 1
 209  001F              #pragma debug variable 8 1 ___eea "__eea" 1
 209  001F              #pragma debug variable 8 1 ___eed "__eed" 1
 209  001F              #pragma debug variable 8 1 ___iar1 "__iar1" 1
 209  001F              #pragma debug struct_end
 209  001F              #pragma debug struct_end
 209  001F              #pragma debug variable 56 1 _iar1 "iar1" 1
 209  001F              extern _builtin_holtek_udivmodhi4_2:byte
 209  001F              extern _builtin_holtek_udivmodhi4:near
 209  001F              extern _builtin_holtek_mulsi3_2:byte
 209  001F              extern _builtin_holtek_mulsi3:near
 209  001F              
 209  001F              ; 
 209  001F              ; Generated by holtek-gcc v3.18, Tue Dec 11 11:16:14 2018
 209  001F              ; Rebuild 521
 209  001F              ; end of file


        0 Errors, 0